
//campus.mcgill.ca/emf/CPE/yma67/My Documents/G16_Lab5/HEX_displays.axf:     file format elf32-littlearm


Disassembly of section .vectors:

00000000 <__cs3_interrupt_vector>:
   0:	18 f0 9f e5 18 f0 9f e5 18 f0 9f e5 18 f0 9f e5     ................
  10:	18 f0 9f e5 18 f0 9f e5 18 f0 9f e5 18 f0 9f e5     ................
  20:	60 07 00 00 64 07 00 00 68 07 00 00 6c 07 00 00     `...d...h...l...
  30:	70 07 00 00 e8 28 00 00 3c 06 00 00 74 07 00 00     p....(..<...t...

Disassembly of section .text:

00000040 <__cs3_reset_generic>:
      40:	ea000026 	b	e0 <__cs3_start_asm_sim>

00000044 <__cs3_start_c>:
      44:	e59f608c 	ldr	r6, [pc, #140]	; d8 <__cs3_start_c+0x94>
      48:	e3560000 	cmp	r6, #0
      4c:	e92d4080 	push	{r7, lr}
      50:	e2466001 	sub	r6, r6, #1
      54:	0a00001e 	beq	d4 <__cs3_start_c+0x90>
      58:	e59f507c 	ldr	r5, [pc, #124]	; dc <__cs3_start_c+0x98>
      5c:	e3a00000 	mov	r0, #0
      60:	e3a01000 	mov	r1, #0
      64:	e515200c 	ldr	r2, [r5, #-12]
      68:	e515e010 	ldr	lr, [r5, #-16]
      6c:	e5154008 	ldr	r4, [r5, #-8]
      70:	e15e0002 	cmp	lr, r2
      74:	00822004 	addeq	r2, r2, r4
      78:	0a000009 	beq	a4 <__cs3_start_c+0x60>
      7c:	e3540000 	cmp	r4, #0
      80:	0a000007 	beq	a4 <__cs3_start_c+0x60>
      84:	e1a07002 	mov	r7, r2
      88:	e1a0c002 	mov	r12, r2
      8c:	e8be000c 	ldm	lr!, {r2, r3}
      90:	e8ac000c 	stmia	r12!, {r2, r3}
      94:	e067300c 	rsb	r3, r7, r12
      98:	e1540003 	cmp	r4, r3
      9c:	e1a0200c 	mov	r2, r12
      a0:	1afffff9 	bne	8c <__cs3_start_c+0x48>
      a4:	e515e004 	ldr	lr, [r5, #-4]
      a8:	e35e0000 	cmp	lr, #0
      ac:	11a03002 	movne	r3, r2
      b0:	0a000003 	beq	c4 <__cs3_start_c+0x80>
      b4:	e8a30003 	stmia	r3!, {r0, r1}
      b8:	e062c003 	rsb	r12, r2, r3
      bc:	e15e000c 	cmp	lr, r12
      c0:	1afffffb 	bne	b4 <__cs3_start_c+0x70>
      c4:	e2466001 	sub	r6, r6, #1
      c8:	e3760001 	cmn	r6, #1
      cc:	e2855014 	add	r5, r5, #20
      d0:	1affffe3 	bne	64 <__cs3_start_c+0x20>
      d4:	eb0009ea 	bl	2884 <__cs3_premain>
      d8:	00000001 	.word	0x00000001
      dc:	00002a50 	.word	0x00002a50

000000e0 <__cs3_start_asm_sim>:
      e0:	e28f103c 	add	r1, pc, #60	; 0x3c
      e4:	e3a00016 	mov	r0, #22
      e8:	ef123456 	svc	0x00123456
      ec:	e3500000 	cmp	r0, #0
      f0:	ba000008 	blt	118 <ICDISER+0x18>
      f4:	e59f2028 	ldr	r2, [pc, #40]	; 124 <__cs3_heap_start_ptr>
      f8:	e59fd01c 	ldr	sp, [pc, #28]	; 11c <ICDISER+0x1c>
      fc:	e5920008 	ldr	r0, [r2, #8]
     100:	e3500000 	cmp	r0, #0
     104:	11a0d000 	movne	sp, r0
     108:	e59f1010 	ldr	r1, [pc, #16]	; 120 <ICDISER+0x20>
     10c:	e5920004 	ldr	r0, [r2, #4]
     110:	e3500000 	cmp	r0, #0
     114:	15810000 	strne	r0, [r1]
     118:	eaffffc9 	b	44 <__cs3_start_c>
     11c:	3ffffff8 	.word	0x3ffffff8
     120:	00031c88 	.word	0x00031c88

00000124 <__cs3_heap_start_ptr>:
     124:	00031cb0 	.word	0x00031cb0

00000128 <_start>:
     128:	e51fd000 	ldr	sp, [pc, #-0]	; 130 <_start+0x8>
     12c:	eaffffc4 	b	44 <__cs3_start_c>
     130:	3ffffff8 	.word	0x3ffffff8

00000134 <deregister_tm_clones>:
     134:	e92d4008 	push	{r3, lr}
     138:	e59f002c 	ldr	r0, [pc, #44]	; 16c <deregister_tm_clones+0x38>
     13c:	e59f302c 	ldr	r3, [pc, #44]	; 170 <deregister_tm_clones+0x3c>
     140:	e0603003 	rsb	r3, r0, r3
     144:	e3530006 	cmp	r3, #6
     148:	8a000001 	bhi	154 <deregister_tm_clones+0x20>
     14c:	e8bd4008 	pop	{r3, lr}
     150:	e12fff1e 	bx	lr
     154:	e59f3018 	ldr	r3, [pc, #24]	; 174 <deregister_tm_clones+0x40>
     158:	e3530000 	cmp	r3, #0
     15c:	0afffffa 	beq	14c <deregister_tm_clones+0x18>
     160:	e1a0e00f 	mov	lr, pc
     164:	e12fff13 	bx	r3
     168:	eafffff7 	b	14c <deregister_tm_clones+0x18>
     16c:	00031c90 	.word	0x00031c90
     170:	00031c93 	.word	0x00031c93
     174:	00000000 	.word	0x00000000

00000178 <register_tm_clones>:
     178:	e92d4008 	push	{r3, lr}
     17c:	e59f0034 	ldr	r0, [pc, #52]	; 1b8 <ICDICER+0x38>
     180:	e59f3034 	ldr	r3, [pc, #52]	; 1bc <ICDICER+0x3c>
     184:	e0603003 	rsb	r3, r0, r3
     188:	e1a03143 	asr	r3, r3, #2
     18c:	e0833fa3 	add	r3, r3, r3, lsr #31
     190:	e1b010c3 	asrs	r1, r3, #1
     194:	1a000001 	bne	1a0 <ICDICER+0x20>
     198:	e8bd4008 	pop	{r3, lr}
     19c:	e12fff1e 	bx	lr
     1a0:	e59f2018 	ldr	r2, [pc, #24]	; 1c0 <ICDICER+0x40>
     1a4:	e3520000 	cmp	r2, #0
     1a8:	0afffffa 	beq	198 <ICDICER+0x18>
     1ac:	e1a0e00f 	mov	lr, pc
     1b0:	e12fff12 	bx	r2
     1b4:	eafffff7 	b	198 <ICDICER+0x18>
     1b8:	00031c90 	.word	0x00031c90
     1bc:	00031c90 	.word	0x00031c90
     1c0:	00000000 	.word	0x00000000

000001c4 <__do_global_dtors_aux>:
     1c4:	e92d4010 	push	{r4, lr}
     1c8:	e59f402c 	ldr	r4, [pc, #44]	; 1fc <__do_global_dtors_aux+0x38>
     1cc:	e5d43000 	ldrb	r3, [r4]
     1d0:	e3530000 	cmp	r3, #0
     1d4:	1a000006 	bne	1f4 <__do_global_dtors_aux+0x30>
     1d8:	ebffffd5 	bl	134 <deregister_tm_clones>
     1dc:	e59f301c 	ldr	r3, [pc, #28]	; 200 <__do_global_dtors_aux+0x3c>
     1e0:	e3530000 	cmp	r3, #0
     1e4:	159f0018 	ldrne	r0, [pc, #24]	; 204 <__do_global_dtors_aux+0x40>
     1e8:	1320f000 	nopne	{0}
     1ec:	e3a03001 	mov	r3, #1
     1f0:	e5c43000 	strb	r3, [r4]
     1f4:	e8bd4010 	pop	{r4, lr}
     1f8:	e12fff1e 	bx	lr
     1fc:	00031c90 	.word	0x00031c90
     200:	00000000 	.word	0x00000000
     204:	00002974 	.word	0x00002974

00000208 <frame_dummy>:
     208:	e92d4008 	push	{r3, lr}
     20c:	e59f3034 	ldr	r3, [pc, #52]	; 248 <frame_dummy+0x40>
     210:	e3530000 	cmp	r3, #0
     214:	159f0030 	ldrne	r0, [pc, #48]	; 24c <frame_dummy+0x44>
     218:	159f1030 	ldrne	r1, [pc, #48]	; 250 <frame_dummy+0x48>
     21c:	1320f000 	nopne	{0}
     220:	e59f002c 	ldr	r0, [pc, #44]	; 254 <frame_dummy+0x4c>
     224:	e5903000 	ldr	r3, [r0]
     228:	e3530000 	cmp	r3, #0
     22c:	0a000003 	beq	240 <frame_dummy+0x38>
     230:	e59f3020 	ldr	r3, [pc, #32]	; 258 <frame_dummy+0x50>
     234:	e3530000 	cmp	r3, #0
     238:	11a0e00f 	movne	lr, pc
     23c:	112fff13 	bxne	r3
     240:	e8bd4008 	pop	{r3, lr}
     244:	eaffffcb 	b	178 <register_tm_clones>
     248:	00000000 	.word	0x00000000
     24c:	00002974 	.word	0x00002974
     250:	00031c94 	.word	0x00031c94
     254:	00002a50 	.word	0x00002a50
     258:	00000000 	.word	0x00000000

0000025c <clear_signal>:

const int VGA_ROW_LEN = 240;
const int VGA_COL_LEN = 320;
const int AMP = 0x800000;

void clear_signal(int pixel_vector[VGA_COL_LEN], int current_pixel_vector[VGA_COL_LEN]) {
     25c:	e92d40f8 	push	{r3, r4, r5, r6, r7, lr}
     260:	e1a05000 	mov	r5, r0
     264:	e1a04001 	mov	r4, r1
	int i = 0, j = 0;
	VGA_clear_pixelbuff_ASM();
     268:	eb00033f 	bl	f6c <VGA_clear_pixelbuff_ASM>
     26c:	e3a03000 	mov	r3, #0
	for (i = 0; i < VGA_COL_LEN; i++) {
		pixel_vector[i] = 100;
     270:	e3a01064 	mov	r1, #100	; 0x64
		current_pixel_vector[i] = 0;
     274:	e1a02003 	mov	r2, r3

void clear_signal(int pixel_vector[VGA_COL_LEN], int current_pixel_vector[VGA_COL_LEN]) {
	int i = 0, j = 0;
	VGA_clear_pixelbuff_ASM();
	for (i = 0; i < VGA_COL_LEN; i++) {
		pixel_vector[i] = 100;
     278:	e7851003 	str	r1, [r5, r3]
		current_pixel_vector[i] = 0;
     27c:	e7842003 	str	r2, [r4, r3]
     280:	e2833004 	add	r3, r3, #4
const int AMP = 0x800000;

void clear_signal(int pixel_vector[VGA_COL_LEN], int current_pixel_vector[VGA_COL_LEN]) {
	int i = 0, j = 0;
	VGA_clear_pixelbuff_ASM();
	for (i = 0; i < VGA_COL_LEN; i++) {
     284:	e3530c05 	cmp	r3, #1280	; 0x500
     288:	1afffffa 	bne	278 <clear_signal+0x1c>
     28c:	e3a05000 	mov	r5, #0
const int VGA_COL_LEN = 320;
const int AMP = 0x800000;

void clear_signal(int pixel_vector[VGA_COL_LEN], int current_pixel_vector[VGA_COL_LEN]) {
	int i = 0, j = 0;
	VGA_clear_pixelbuff_ASM();
     290:	e1a07005 	mov	r7, r5
	for (i = 0; i < VGA_COL_LEN; i++) {
		pixel_vector[i] = 100;
		current_pixel_vector[i] = 0;
	}
	for (i = 0; i < 43; i++) for (j = 0; j < VGA_COL_LEN; j++) VGA_draw_point_ASM(j, i, 0x5D36);
     294:	e3056d36 	movw	r6, #23862	; 0x5d36
     298:	ea000009 	b	2c4 <clear_signal+0x68>
     29c:	e1a00004 	mov	r0, r4
     2a0:	e1a01005 	mov	r1, r5
     2a4:	e1a02006 	mov	r2, r6
     2a8:	eb000363 	bl	103c <VGA_draw_point_ASM>
     2ac:	e2844001 	add	r4, r4, #1
     2b0:	e3540d05 	cmp	r4, #320	; 0x140
     2b4:	1afffff8 	bne	29c <clear_signal+0x40>
     2b8:	e2855001 	add	r5, r5, #1
     2bc:	e355002b 	cmp	r5, #43	; 0x2b
     2c0:	0a00000c 	beq	2f8 <clear_signal+0x9c>
const int VGA_COL_LEN = 320;
const int AMP = 0x800000;

void clear_signal(int pixel_vector[VGA_COL_LEN], int current_pixel_vector[VGA_COL_LEN]) {
	int i = 0, j = 0;
	VGA_clear_pixelbuff_ASM();
     2c4:	e1a04007 	mov	r4, r7
     2c8:	eafffff3 	b	29c <clear_signal+0x40>
	for (i = 0; i < VGA_COL_LEN; i++) {
		pixel_vector[i] = 100;
		current_pixel_vector[i] = 0;
	}
	for (i = 0; i < 43; i++) for (j = 0; j < VGA_COL_LEN; j++) VGA_draw_point_ASM(j, i, 0x5D36);
	for (i = 43; i < VGA_ROW_LEN; i++) for (j = 0; j < VGA_COL_LEN; j++) VGA_draw_point_ASM(j, i, 0x8EFF);
     2cc:	e1a00004 	mov	r0, r4
     2d0:	e1a01005 	mov	r1, r5
     2d4:	e1a02006 	mov	r2, r6
     2d8:	eb000357 	bl	103c <VGA_draw_point_ASM>
     2dc:	e2844001 	add	r4, r4, #1
     2e0:	e3540d05 	cmp	r4, #320	; 0x140
     2e4:	1afffff8 	bne	2cc <clear_signal+0x70>
     2e8:	e2855001 	add	r5, r5, #1
     2ec:	e35500f0 	cmp	r5, #240	; 0xf0
     2f0:	1a000002 	bne	300 <clear_signal+0xa4>
     2f4:	e8bd80f8 	pop	{r3, r4, r5, r6, r7, pc}
const int AMP = 0x800000;

void clear_signal(int pixel_vector[VGA_COL_LEN], int current_pixel_vector[VGA_COL_LEN]) {
	int i = 0, j = 0;
	VGA_clear_pixelbuff_ASM();
	for (i = 0; i < VGA_COL_LEN; i++) {
     2f8:	e3a07000 	mov	r7, #0
		pixel_vector[i] = 100;
		current_pixel_vector[i] = 0;
	}
	for (i = 0; i < 43; i++) for (j = 0; j < VGA_COL_LEN; j++) VGA_draw_point_ASM(j, i, 0x5D36);
	for (i = 43; i < VGA_ROW_LEN; i++) for (j = 0; j < VGA_COL_LEN; j++) VGA_draw_point_ASM(j, i, 0x8EFF);
     2fc:	e3e06c71 	mvn	r6, #28928	; 0x7100
const int AMP = 0x800000;

void clear_signal(int pixel_vector[VGA_COL_LEN], int current_pixel_vector[VGA_COL_LEN]) {
	int i = 0, j = 0;
	VGA_clear_pixelbuff_ASM();
	for (i = 0; i < VGA_COL_LEN; i++) {
     300:	e1a04007 	mov	r4, r7
     304:	eafffff0 	b	2cc <clear_signal+0x70>

00000308 <screen_write_cstring>:
		else if (i == NUM_NOTES - 1) screen_write_cstring((char []){'HH', 'C', ':', is_pressed[i] + '0', ' ', '\0'}, 75, 8);
		else screen_write_cstring((char []){'C', i - 12 + 'A', ':', is_pressed[i] + '0', ' ', '\0'}, 45 + (i - 7) * 5, 6);
	}
}

void screen_write_cstring(char cstr[], int sx, int sy) {
     308:	e92d41f0 	push	{r4, r5, r6, r7, r8, lr}
     30c:	e1a04001 	mov	r4, r1
     310:	e1a05002 	mov	r5, r2
	int i = 0;
	while (cstr[i] != '\0') {
     314:	e5d02000 	ldrb	r2, [r0]
     318:	e3520000 	cmp	r2, #0
     31c:	08bd81f0 	popeq	{r4, r5, r6, r7, r8, pc}
     320:	e1a06000 	mov	r6, r0
		VGA_write_char_ASM(sx, sy, cstr[i]);
		if (sx == 78) sy = (sy + 1) % 60;
     324:	e3088889 	movw	r8, #34953	; 0x8889
     328:	e3488888 	movt	r8, #34952	; 0x8888
		sx = (sx + 1) % 80;
     32c:	e3067667 	movw	r7, #26215	; 0x6667
     330:	e3467666 	movt	r7, #26214	; 0x6666
}

void screen_write_cstring(char cstr[], int sx, int sy) {
	int i = 0;
	while (cstr[i] != '\0') {
		VGA_write_char_ASM(sx, sy, cstr[i]);
     334:	e1a00004 	mov	r0, r4
     338:	e1a01005 	mov	r1, r5
     33c:	eb00031a 	bl	fac <VGA_write_char_ASM>
		if (sx == 78) sy = (sy + 1) % 60;
     340:	e354004e 	cmp	r4, #78	; 0x4e
     344:	1a000006 	bne	364 <screen_write_cstring+0x5c>
     348:	e2853001 	add	r3, r5, #1
     34c:	e0c52398 	smull	r2, r5, r8, r3
     350:	e0855003 	add	r5, r5, r3
     354:	e1a02fc3 	asr	r2, r3, #31
     358:	e06252c5 	rsb	r5, r2, r5, asr #5
     35c:	e0655205 	rsb	r5, r5, r5, lsl #4
     360:	e0435105 	sub	r5, r3, r5, lsl #2
		sx = (sx + 1) % 80;
     364:	e2843001 	add	r3, r4, #1
     368:	e0c42397 	smull	r2, r4, r7, r3
     36c:	e1a02fc3 	asr	r2, r3, #31
     370:	e06242c4 	rsb	r4, r2, r4, asr #5
     374:	e0844104 	add	r4, r4, r4, lsl #2
     378:	e0434204 	sub	r4, r3, r4, lsl #4
	}
}

void screen_write_cstring(char cstr[], int sx, int sy) {
	int i = 0;
	while (cstr[i] != '\0') {
     37c:	e5f62001 	ldrb	r2, [r6, #1]!
     380:	e3520000 	cmp	r2, #0
     384:	1affffea 	bne	334 <screen_write_cstring+0x2c>
     388:	e8bd81f0 	pop	{r4, r5, r6, r7, r8, pc}

0000038c <render>:
	}
	for (i = 0; i < 43; i++) for (j = 0; j < VGA_COL_LEN; j++) VGA_draw_point_ASM(j, i, 0x5D36);
	for (i = 43; i < VGA_ROW_LEN; i++) for (j = 0; j < VGA_COL_LEN; j++) VGA_draw_point_ASM(j, i, 0x8EFF);
}

void render(int volume, char is_pressed[]) {
     38c:	e92d4ff0 	push	{r4, r5, r6, r7, r8, r9, r10, r11, lr}
     390:	e24dd034 	sub	sp, sp, #52	; 0x34
     394:	e1a04000 	mov	r4, r0
     398:	e1a06001 	mov	r6, r1
	int i; 
	screen_write_cstring("Director BOSS Li is the strongest!", 21, 1);
     39c:	e3020984 	movw	r0, #10628	; 0x2984
     3a0:	e3400000 	movt	r0, #0
     3a4:	e3a01015 	mov	r1, #21
     3a8:	e3a02001 	mov	r2, #1
     3ac:	ebffffd5 	bl	308 <screen_write_cstring>
	screen_write_cstring("Volume: ", 1, 4);
     3b0:	e30209a8 	movw	r0, #10664	; 0x29a8
     3b4:	e3400000 	movt	r0, #0
     3b8:	e3a01001 	mov	r1, #1
     3bc:	e3a02004 	mov	r2, #4
     3c0:	ebffffd0 	bl	308 <screen_write_cstring>
	screen_write_cstring((char []){volume + '0', '\0'}, 8, 4);
     3c4:	e2844030 	add	r4, r4, #48	; 0x30
     3c8:	e5cd4004 	strb	r4, [sp, #4]
     3cc:	e3a04000 	mov	r4, #0
     3d0:	e5cd4005 	strb	r4, [sp, #5]
     3d4:	e28d0004 	add	r0, sp, #4
     3d8:	e3a01008 	mov	r1, #8
     3dc:	e3a02004 	mov	r2, #4
     3e0:	ebffffc8 	bl	308 <screen_write_cstring>
     3e4:	e3a0502d 	mov	r5, #45	; 0x2d
	for (i = 0; i < 7; i++) {
		if (i < 5) screen_write_cstring((char []){'L', i + 'C', ':', is_pressed[i] + '0', ' ', '\0'}, 45 + i * 5, 4);
		else screen_write_cstring((char []){'L', i - 5 + 'A', ':', is_pressed[i] + '0', ' ', '\0'}, 45 + i * 5, 4);
     3e8:	e3a0b04c 	mov	r11, #76	; 0x4c
     3ec:	e3a0903a 	mov	r9, #58	; 0x3a
     3f0:	e3a0a020 	mov	r10, #32
     3f4:	e1a08004 	mov	r8, r4
     3f8:	e3a07004 	mov	r7, #4
	int i; 
	screen_write_cstring("Director BOSS Li is the strongest!", 21, 1);
	screen_write_cstring("Volume: ", 1, 4);
	screen_write_cstring((char []){volume + '0', '\0'}, 8, 4);
	for (i = 0; i < 7; i++) {
		if (i < 5) screen_write_cstring((char []){'L', i + 'C', ':', is_pressed[i] + '0', ' ', '\0'}, 45 + i * 5, 4);
     3fc:	e3540004 	cmp	r4, #4
     400:	ca00000d 	bgt	43c <render+0xb0>
     404:	e5cdb008 	strb	r11, [sp, #8]
	}
	for (i = 0; i < 43; i++) for (j = 0; j < VGA_COL_LEN; j++) VGA_draw_point_ASM(j, i, 0x5D36);
	for (i = 43; i < VGA_ROW_LEN; i++) for (j = 0; j < VGA_COL_LEN; j++) VGA_draw_point_ASM(j, i, 0x8EFF);
}

void render(int volume, char is_pressed[]) {
     408:	e2843043 	add	r3, r4, #67	; 0x43
	int i; 
	screen_write_cstring("Director BOSS Li is the strongest!", 21, 1);
	screen_write_cstring("Volume: ", 1, 4);
	screen_write_cstring((char []){volume + '0', '\0'}, 8, 4);
	for (i = 0; i < 7; i++) {
		if (i < 5) screen_write_cstring((char []){'L', i + 'C', ':', is_pressed[i] + '0', ' ', '\0'}, 45 + i * 5, 4);
     40c:	e5cd3009 	strb	r3, [sp, #9]
     410:	e5cd900a 	strb	r9, [sp, #10]
     414:	e7d63004 	ldrb	r3, [r6, r4]
     418:	e2833030 	add	r3, r3, #48	; 0x30
     41c:	e5cd300b 	strb	r3, [sp, #11]
     420:	e5cda00c 	strb	r10, [sp, #12]
     424:	e5cd800d 	strb	r8, [sp, #13]
     428:	e28d0008 	add	r0, sp, #8
     42c:	e1a01005 	mov	r1, r5
     430:	e1a02007 	mov	r2, r7
     434:	ebffffb3 	bl	308 <screen_write_cstring>
     438:	ea00000c 	b	470 <render+0xe4>
		else screen_write_cstring((char []){'L', i - 5 + 'A', ':', is_pressed[i] + '0', ' ', '\0'}, 45 + i * 5, 4);
     43c:	e5cdb010 	strb	r11, [sp, #16]
	}
	for (i = 0; i < 43; i++) for (j = 0; j < VGA_COL_LEN; j++) VGA_draw_point_ASM(j, i, 0x5D36);
	for (i = 43; i < VGA_ROW_LEN; i++) for (j = 0; j < VGA_COL_LEN; j++) VGA_draw_point_ASM(j, i, 0x8EFF);
}

void render(int volume, char is_pressed[]) {
     440:	e284303c 	add	r3, r4, #60	; 0x3c
	screen_write_cstring("Director BOSS Li is the strongest!", 21, 1);
	screen_write_cstring("Volume: ", 1, 4);
	screen_write_cstring((char []){volume + '0', '\0'}, 8, 4);
	for (i = 0; i < 7; i++) {
		if (i < 5) screen_write_cstring((char []){'L', i + 'C', ':', is_pressed[i] + '0', ' ', '\0'}, 45 + i * 5, 4);
		else screen_write_cstring((char []){'L', i - 5 + 'A', ':', is_pressed[i] + '0', ' ', '\0'}, 45 + i * 5, 4);
     444:	e5cd3011 	strb	r3, [sp, #17]
     448:	e5cd9012 	strb	r9, [sp, #18]
     44c:	e7d63004 	ldrb	r3, [r6, r4]
     450:	e2833030 	add	r3, r3, #48	; 0x30
     454:	e5cd3013 	strb	r3, [sp, #19]
     458:	e5cda014 	strb	r10, [sp, #20]
     45c:	e5cd8015 	strb	r8, [sp, #21]
     460:	e28d0010 	add	r0, sp, #16
     464:	e1a01005 	mov	r1, r5
     468:	e1a02007 	mov	r2, r7
     46c:	ebffffa5 	bl	308 <screen_write_cstring>
void render(int volume, char is_pressed[]) {
	int i; 
	screen_write_cstring("Director BOSS Li is the strongest!", 21, 1);
	screen_write_cstring("Volume: ", 1, 4);
	screen_write_cstring((char []){volume + '0', '\0'}, 8, 4);
	for (i = 0; i < 7; i++) {
     470:	e2844001 	add	r4, r4, #1
     474:	e2855005 	add	r5, r5, #5
     478:	e3540007 	cmp	r4, #7
     47c:	1affffde 	bne	3fc <render+0x70>
		if (i < 5) screen_write_cstring((char []){'L', i + 'C', ':', is_pressed[i] + '0', ' ', '\0'}, 45 + i * 5, 4);
		else screen_write_cstring((char []){'L', i - 5 + 'A', ':', is_pressed[i] + '0', ' ', '\0'}, 45 + i * 5, 4);
	}
	for (i = 7; i < NUM_NOTES; i++) {
     480:	e30239b4 	movw	r3, #10676	; 0x29b4
     484:	e3403000 	movt	r3, #0
     488:	e5933000 	ldr	r3, [r3]
     48c:	e3530007 	cmp	r3, #7
     490:	da000039 	ble	57c <render+0x1f0>
     494:	e3a0502d 	mov	r5, #45	; 0x2d
		if (i < 12) screen_write_cstring((char []){'C', i - 7 + 'C', ':', is_pressed[i] + '0', ' ', '\0'}, 45 + (i - 7) * 5, 6);
		else if (i == NUM_NOTES - 1) screen_write_cstring((char []){'HH', 'C', ':', is_pressed[i] + '0', ' ', '\0'}, 75, 8);
		else screen_write_cstring((char []){'C', i - 12 + 'A', ':', is_pressed[i] + '0', ' ', '\0'}, 45 + (i - 7) * 5, 6);
     498:	e3a0b043 	mov	r11, #67	; 0x43
     49c:	e3a0903a 	mov	r9, #58	; 0x3a
     4a0:	e3a0a020 	mov	r10, #32
     4a4:	e3a08000 	mov	r8, #0
	screen_write_cstring((char []){volume + '0', '\0'}, 8, 4);
	for (i = 0; i < 7; i++) {
		if (i < 5) screen_write_cstring((char []){'L', i + 'C', ':', is_pressed[i] + '0', ' ', '\0'}, 45 + i * 5, 4);
		else screen_write_cstring((char []){'L', i - 5 + 'A', ':', is_pressed[i] + '0', ' ', '\0'}, 45 + i * 5, 4);
	}
	for (i = 7; i < NUM_NOTES; i++) {
     4a8:	e30279b4 	movw	r7, #10676	; 0x29b4
     4ac:	e3407000 	movt	r7, #0
		if (i < 12) screen_write_cstring((char []){'C', i - 7 + 'C', ':', is_pressed[i] + '0', ' ', '\0'}, 45 + (i - 7) * 5, 6);
     4b0:	e354000b 	cmp	r4, #11
     4b4:	ca00000d 	bgt	4f0 <render+0x164>
     4b8:	e5cdb018 	strb	r11, [sp, #24]
	}
	for (i = 0; i < 43; i++) for (j = 0; j < VGA_COL_LEN; j++) VGA_draw_point_ASM(j, i, 0x5D36);
	for (i = 43; i < VGA_ROW_LEN; i++) for (j = 0; j < VGA_COL_LEN; j++) VGA_draw_point_ASM(j, i, 0x8EFF);
}

void render(int volume, char is_pressed[]) {
     4bc:	e284303c 	add	r3, r4, #60	; 0x3c
	for (i = 0; i < 7; i++) {
		if (i < 5) screen_write_cstring((char []){'L', i + 'C', ':', is_pressed[i] + '0', ' ', '\0'}, 45 + i * 5, 4);
		else screen_write_cstring((char []){'L', i - 5 + 'A', ':', is_pressed[i] + '0', ' ', '\0'}, 45 + i * 5, 4);
	}
	for (i = 7; i < NUM_NOTES; i++) {
		if (i < 12) screen_write_cstring((char []){'C', i - 7 + 'C', ':', is_pressed[i] + '0', ' ', '\0'}, 45 + (i - 7) * 5, 6);
     4c0:	e5cd3019 	strb	r3, [sp, #25]
     4c4:	e5cd901a 	strb	r9, [sp, #26]
     4c8:	e7d63004 	ldrb	r3, [r6, r4]
     4cc:	e2833030 	add	r3, r3, #48	; 0x30
     4d0:	e5cd301b 	strb	r3, [sp, #27]
     4d4:	e5cda01c 	strb	r10, [sp, #28]
     4d8:	e5cd801d 	strb	r8, [sp, #29]
     4dc:	e28d0018 	add	r0, sp, #24
     4e0:	e1a01005 	mov	r1, r5
     4e4:	e3a02006 	mov	r2, #6
     4e8:	ebffff86 	bl	308 <screen_write_cstring>
     4ec:	ea00001d 	b	568 <render+0x1dc>
		else if (i == NUM_NOTES - 1) screen_write_cstring((char []){'HH', 'C', ':', is_pressed[i] + '0', ' ', '\0'}, 75, 8);
     4f0:	e2433001 	sub	r3, r3, #1
     4f4:	e1530004 	cmp	r3, r4
     4f8:	1a00000d 	bne	534 <render+0x1a8>
     4fc:	e3a02048 	mov	r2, #72	; 0x48
     500:	e5cd2020 	strb	r2, [sp, #32]
     504:	e5cdb021 	strb	r11, [sp, #33]	; 0x21
     508:	e5cd9022 	strb	r9, [sp, #34]	; 0x22
     50c:	e7d63003 	ldrb	r3, [r6, r3]
     510:	e2833030 	add	r3, r3, #48	; 0x30
     514:	e5cd3023 	strb	r3, [sp, #35]	; 0x23
     518:	e5cda024 	strb	r10, [sp, #36]	; 0x24
     51c:	e5cd8025 	strb	r8, [sp, #37]	; 0x25
     520:	e28d0020 	add	r0, sp, #32
     524:	e3a0104b 	mov	r1, #75	; 0x4b
     528:	e3a02008 	mov	r2, #8
     52c:	ebffff75 	bl	308 <screen_write_cstring>
     530:	ea00000c 	b	568 <render+0x1dc>
		else screen_write_cstring((char []){'C', i - 12 + 'A', ':', is_pressed[i] + '0', ' ', '\0'}, 45 + (i - 7) * 5, 6);
     534:	e5cdb028 	strb	r11, [sp, #40]	; 0x28
	}
	for (i = 0; i < 43; i++) for (j = 0; j < VGA_COL_LEN; j++) VGA_draw_point_ASM(j, i, 0x5D36);
	for (i = 43; i < VGA_ROW_LEN; i++) for (j = 0; j < VGA_COL_LEN; j++) VGA_draw_point_ASM(j, i, 0x8EFF);
}

void render(int volume, char is_pressed[]) {
     538:	e2843035 	add	r3, r4, #53	; 0x35
		else screen_write_cstring((char []){'L', i - 5 + 'A', ':', is_pressed[i] + '0', ' ', '\0'}, 45 + i * 5, 4);
	}
	for (i = 7; i < NUM_NOTES; i++) {
		if (i < 12) screen_write_cstring((char []){'C', i - 7 + 'C', ':', is_pressed[i] + '0', ' ', '\0'}, 45 + (i - 7) * 5, 6);
		else if (i == NUM_NOTES - 1) screen_write_cstring((char []){'HH', 'C', ':', is_pressed[i] + '0', ' ', '\0'}, 75, 8);
		else screen_write_cstring((char []){'C', i - 12 + 'A', ':', is_pressed[i] + '0', ' ', '\0'}, 45 + (i - 7) * 5, 6);
     53c:	e5cd3029 	strb	r3, [sp, #41]	; 0x29
     540:	e5cd902a 	strb	r9, [sp, #42]	; 0x2a
     544:	e7d63004 	ldrb	r3, [r6, r4]
     548:	e2833030 	add	r3, r3, #48	; 0x30
     54c:	e5cd302b 	strb	r3, [sp, #43]	; 0x2b
     550:	e5cda02c 	strb	r10, [sp, #44]	; 0x2c
     554:	e5cd802d 	strb	r8, [sp, #45]	; 0x2d
     558:	e28d0028 	add	r0, sp, #40	; 0x28
     55c:	e1a01005 	mov	r1, r5
     560:	e3a02006 	mov	r2, #6
     564:	ebffff67 	bl	308 <screen_write_cstring>
	screen_write_cstring((char []){volume + '0', '\0'}, 8, 4);
	for (i = 0; i < 7; i++) {
		if (i < 5) screen_write_cstring((char []){'L', i + 'C', ':', is_pressed[i] + '0', ' ', '\0'}, 45 + i * 5, 4);
		else screen_write_cstring((char []){'L', i - 5 + 'A', ':', is_pressed[i] + '0', ' ', '\0'}, 45 + i * 5, 4);
	}
	for (i = 7; i < NUM_NOTES; i++) {
     568:	e2844001 	add	r4, r4, #1
     56c:	e5973000 	ldr	r3, [r7]
     570:	e2855005 	add	r5, r5, #5
     574:	e1530004 	cmp	r3, r4
     578:	caffffcc 	bgt	4b0 <render+0x124>
		if (i < 12) screen_write_cstring((char []){'C', i - 7 + 'C', ':', is_pressed[i] + '0', ' ', '\0'}, 45 + (i - 7) * 5, 6);
		else if (i == NUM_NOTES - 1) screen_write_cstring((char []){'HH', 'C', ':', is_pressed[i] + '0', ' ', '\0'}, 75, 8);
		else screen_write_cstring((char []){'C', i - 12 + 'A', ':', is_pressed[i] + '0', ' ', '\0'}, 45 + (i - 7) * 5, 6);
	}
}
     57c:	e28dd034 	add	sp, sp, #52	; 0x34
     580:	e8bd8ff0 	pop	{r4, r5, r6, r7, r8, r9, r10, r11, pc}

00000584 <disable_A9_interrupts>:
#include "../inc/int_setup.h"

void disable_A9_interrupts() {
	int status = 0b11010011;
	asm("msr cpsr, %[ps]" : : [ps]"r"(status));
     584:	e3a030d3 	mov	r3, #211	; 0xd3
     588:	e129f003 	msr	CPSR_fc, r3
     58c:	e12fff1e 	bx	lr

00000590 <enable_A9_interrupts>:
}

void enable_A9_interrupts() {
	int status = 0b01010011;
	asm("msr cpsr, %[ps]" : : [ps]"r"(status));
     590:	e3a03053 	mov	r3, #83	; 0x53
     594:	e129f003 	msr	CPSR_fc, r3
     598:	e12fff1e 	bx	lr

0000059c <set_A9_IRQ_stack>:

void set_A9_IRQ_stack() {
	int stack, mode;
	stack = 0xFFFFFFFF - 7;
	mode = 0b11010010;
	asm("msr cpsr, %[ps]" : : [ps] "r" (mode));
     59c:	e3a030d2 	mov	r3, #210	; 0xd2
     5a0:	e129f003 	msr	CPSR_fc, r3
	asm("mov sp, %[ps]" : : [ps] "r" (stack));
     5a4:	e3e03007 	mvn	r3, #7
     5a8:	e1a0d003 	mov	sp, r3
	
	mode = 0b11010011;
	asm("msr cpsr, %[ps]" : : [ps] "r" (mode));
     5ac:	e3a030d3 	mov	r3, #211	; 0xd3
     5b0:	e129f003 	msr	CPSR_fc, r3
     5b4:	e12fff1e 	bx	lr

000005b8 <config_interrupt>:
}

void config_interrupt(int ID, int CPU) {
     5b8:	e52d4004 	push	{r4}		; (str r4, [sp, #-4]!)
	int reg_offset;
	int index;
	int value;
	int address;
	
	reg_offset = (ID>>3) & 0xFFFFFFFC;
     5bc:	e1a031c0 	asr	r3, r0, #3
     5c0:	e3c33003 	bic	r3, r3, #3
	index = ID & 0x1F;
	value = 1<<index;
	address = MPCORE_GIC_DIST + ICDISER + reg_offset;
     5c4:	e2433b4b 	sub	r3, r3, #76800	; 0x12c00
	int index;
	int value;
	int address;
	
	reg_offset = (ID>>3) & 0xFFFFFFFC;
	index = ID & 0x1F;
     5c8:	e200201f 	and	r2, r0, #31
	value = 1<<index;
	address = MPCORE_GIC_DIST + ICDISER + reg_offset;
	*(int *)address |= value;
     5cc:	e513c300 	ldr	r12, [r3, #-768]	; 0xfffffd00
     5d0:	e3a04001 	mov	r4, #1
     5d4:	e18c2214 	orr	r2, r12, r4, lsl r2
     5d8:	e5032300 	str	r2, [r3, #-768]	; 0xfffffd00
	
	reg_offset = (ID & 0xFFFFFFFC);
	index = ID & 3;
	address = MPCORE_GIC_DIST + ICDIPTR + reg_offset + index;
	*(char *)address = (char)CPU;
     5dc:	e2400b4a 	sub	r0, r0, #75776	; 0x12800
     5e0:	e5c01000 	strb	r1, [r0]
}
     5e4:	e8bd0010 	ldmfd	sp!, {r4}
     5e8:	e12fff1e 	bx	lr

000005ec <config_GIC>:

void config_GIC(int len, int* IDs) {
     5ec:	e92d40f8 	push	{r3, r4, r5, r6, r7, lr}
	int i;
	for(i=0 ; i<len ; i++)
     5f0:	e2506000 	subs	r6, r0, #0
     5f4:	da000008 	ble	61c <config_GIC+0x30>
	index = ID & 3;
	address = MPCORE_GIC_DIST + ICDIPTR + reg_offset + index;
	*(char *)address = (char)CPU;
}

void config_GIC(int len, int* IDs) {
     5f8:	e2415004 	sub	r5, r1, #4
	int i;
	for(i=0 ; i<len ; i++)
     5fc:	e3a04000 	mov	r4, #0
		config_interrupt(IDs[i],1);
     600:	e3a07001 	mov	r7, #1
     604:	e5b50004 	ldr	r0, [r5, #4]!
     608:	e1a01007 	mov	r1, r7
     60c:	ebffffe9 	bl	5b8 <config_interrupt>
	*(char *)address = (char)CPU;
}

void config_GIC(int len, int* IDs) {
	int i;
	for(i=0 ; i<len ; i++)
     610:	e2844001 	add	r4, r4, #1
     614:	e1540006 	cmp	r4, r6
     618:	1afffff9 	bne	604 <config_GIC+0x18>
		config_interrupt(IDs[i],1);
	*((int *) (MPCORE_GIC_CPUIF + ICCPMR)) = 0xFFFF;
     61c:	e3e02a13 	mvn	r2, #77824	; 0x13000
     620:	e30f3fff 	movw	r3, #65535	; 0xffff
     624:	e5023efb 	str	r3, [r2, #-3835]	; 0xfffff105
	*((int *) (MPCORE_GIC_CPUIF)) = 1;
     628:	e3a03001 	mov	r3, #1
     62c:	e5023eff 	str	r3, [r2, #-3839]	; 0xfffff101
	*((int *) (MPCORE_GIC_DIST)) = 1;
     630:	e3e02a12 	mvn	r2, #73728	; 0x12000
     634:	e5023fff 	str	r3, [r2, #-4095]	; 0xfffff001
     638:	e8bd80f8 	pop	{r3, r4, r5, r6, r7, pc}

0000063c <__cs3_isr_irq>:
}

void __attribute__ ((interrupt)) __cs3_isr_irq() {
     63c:	e24ee004 	sub	lr, lr, #4
     640:	e92d503f 	push	{r0, r1, r2, r3, r4, r5, r12, lr}
	int interrupt_ID = *((int *) (MPCORE_GIC_CPUIF + ICCIAR));
     644:	e3e03a13 	mvn	r3, #77824	; 0x13000
     648:	e5134ef3 	ldr	r4, [r3, #-3827]	; 0xfffff10d
	
	switch(interrupt_ID) {
     64c:	e3540053 	cmp	r4, #83	; 0x53
     650:	0a000038 	beq	738 <__cs3_isr_irq+0xfc>
     654:	ca00000f 	bgt	698 <__cs3_isr_irq+0x5c>
     658:	e354004e 	cmp	r4, #78	; 0x4e
     65c:	0a00002d 	beq	718 <__cs3_isr_irq+0xdc>
     660:	ca000006 	bgt	680 <__cs3_isr_irq+0x44>
     664:	e3540048 	cmp	r4, #72	; 0x48
     668:	0a000026 	beq	708 <__cs3_isr_irq+0xcc>
     66c:	e3540049 	cmp	r4, #73	; 0x49
     670:	0a000026 	beq	710 <__cs3_isr_irq+0xd4>
     674:	e354001d 	cmp	r4, #29
     678:	0a000016 	beq	6d8 <__cs3_isr_irq+0x9c>
     67c:	ea000033 	b	750 <__cs3_isr_irq+0x114>
     680:	e3540050 	cmp	r4, #80	; 0x50
     684:	0a000027 	beq	728 <__cs3_isr_irq+0xec>
     688:	ba000024 	blt	720 <__cs3_isr_irq+0xe4>
     68c:	e3540051 	cmp	r4, #81	; 0x51
     690:	0a000026 	beq	730 <__cs3_isr_irq+0xf4>
     694:	ea00002d 	b	750 <__cs3_isr_irq+0x114>
     698:	e35400c7 	cmp	r4, #199	; 0xc7
     69c:	0a000011 	beq	6e8 <__cs3_isr_irq+0xac>
     6a0:	ca000006 	bgt	6c0 <__cs3_isr_irq+0x84>
     6a4:	e3540059 	cmp	r4, #89	; 0x59
     6a8:	0a000026 	beq	748 <__cs3_isr_irq+0x10c>
     6ac:	e35400c5 	cmp	r4, #197	; 0xc5
     6b0:	0a00000a 	beq	6e0 <__cs3_isr_irq+0xa4>
     6b4:	e3540054 	cmp	r4, #84	; 0x54
     6b8:	0a000020 	beq	740 <__cs3_isr_irq+0x104>
     6bc:	ea000023 	b	750 <__cs3_isr_irq+0x114>
     6c0:	e35400c9 	cmp	r4, #201	; 0xc9
     6c4:	0a00000b 	beq	6f8 <__cs3_isr_irq+0xbc>
     6c8:	ba000008 	blt	6f0 <__cs3_isr_irq+0xb4>
     6cc:	e35400ca 	cmp	r4, #202	; 0xca
     6d0:	0a00000a 	beq	700 <__cs3_isr_irq+0xc4>
     6d4:	ea00001d 	b	750 <__cs3_isr_irq+0x114>
		
		case 29:  A9_PRIV_TIM_ISR(); break;
     6d8:	eb0000cc 	bl	a10 <A9_PRIV_TIM_ISR>
     6dc:	ea00001c 	b	754 <__cs3_isr_irq+0x118>
		case 197: HPS_GPIO1_ISR(); break;
     6e0:	eb0000cb 	bl	a14 <HPS_GPIO1_ISR>
     6e4:	ea00001a 	b	754 <__cs3_isr_irq+0x118>
		case 199: HPS_TIM0_ISR(); break;
     6e8:	eb0000ca 	bl	a18 <HPS_TIM0_ISR>
     6ec:	ea000018 	b	754 <__cs3_isr_irq+0x118>
		case 200: HPS_TIM1_ISR(); break;
     6f0:	eb0000d0 	bl	a38 <HPS_TIM1_ISR>
     6f4:	ea000016 	b	754 <__cs3_isr_irq+0x118>
		case 201: HPS_TIM2_ISR(); break;
     6f8:	eb0000d6 	bl	a58 <HPS_TIM2_ISR>
     6fc:	ea000014 	b	754 <__cs3_isr_irq+0x118>
		case 202: HPS_TIM3_ISR(); break;
     700:	eb0000d5 	bl	a5c <HPS_TIM3_ISR>
     704:	ea000012 	b	754 <__cs3_isr_irq+0x118>
		case 72:  FPGA_INTERVAL_TIM_ISR(); break;
     708:	eb0000d4 	bl	a60 <FPGA_INTERVAL_TIM_ISR>
     70c:	ea000010 	b	754 <__cs3_isr_irq+0x118>
		case 73:  FPGA_PB_KEYS_ISR(); break;
     710:	eb0000d3 	bl	a64 <FPGA_PB_KEYS_ISR>
     714:	ea00000e 	b	754 <__cs3_isr_irq+0x118>
		case 78:  FPGA_Audio_ISR(); break;
     718:	eb0000d2 	bl	a68 <FPGA_Audio_ISR>
     71c:	ea00000c 	b	754 <__cs3_isr_irq+0x118>
		case 79:  FPGA_PS2_ISR(); break;
     720:	eb0000d1 	bl	a6c <FPGA_PS2_ISR>
     724:	ea00000a 	b	754 <__cs3_isr_irq+0x118>
		case 80:  FPGA_JTAG_ISR(); break;
     728:	eb0000d0 	bl	a70 <FPGA_JTAG_ISR>
     72c:	ea000008 	b	754 <__cs3_isr_irq+0x118>
		case 81:  FPGA_IrDA_ISR(); break;
     730:	eb0000cf 	bl	a74 <FPGA_IrDA_ISR>
     734:	ea000006 	b	754 <__cs3_isr_irq+0x118>
		case 83:  FPGA_JP1_ISR(); break;
     738:	eb0000ce 	bl	a78 <FPGA_JP1_ISR>
     73c:	ea000004 	b	754 <__cs3_isr_irq+0x118>
		case 84:  FPGA_JP2_ISR(); break;
     740:	eb0000cd 	bl	a7c <FPGA_JP2_ISR>
     744:	ea000002 	b	754 <__cs3_isr_irq+0x118>
		case 89:  FPGA_PS2_DUAL_ISR(); break;
     748:	eb0000cc 	bl	a80 <FPGA_PS2_DUAL_ISR>
     74c:	ea000000 	b	754 <__cs3_isr_irq+0x118>
     750:	eafffffe 	b	750 <__cs3_isr_irq+0x114>
	
		default: while(1); break;
	}
	
	*((int *) (MPCORE_GIC_CPUIF + ICCEOIR)) = interrupt_ID;
     754:	e3e03a13 	mvn	r3, #77824	; 0x13000
     758:	e5034eef 	str	r4, [r3, #-3823]	; 0xfffff111
     75c:	e8fd903f 	ldm	sp!, {r0, r1, r2, r3, r4, r5, r12, pc}^

00000760 <__cs3_reset>:
}

void __attribute__ ((interrupt)) __cs3_reset (void) {
     760:	eafffffe 	b	760 <__cs3_reset>

00000764 <__cs3_isr_undef>:
	while(1);
}

void __attribute__ ((interrupt)) __cs3_isr_undef (void) {
     764:	eafffffe 	b	764 <__cs3_isr_undef>

00000768 <__cs3_isr_swi>:
	while(1);
}

void __attribute__ ((interrupt)) __cs3_isr_swi (void) {
     768:	eafffffe 	b	768 <__cs3_isr_swi>

0000076c <__cs3_isr_pabort>:
	while(1);
}

void __attribute__ ((interrupt)) __cs3_isr_pabort (void) {
     76c:	eafffffe 	b	76c <__cs3_isr_pabort>

00000770 <__cs3_isr_dabort>:
	while(1);
}

void __attribute__ ((interrupt)) __cs3_isr_dabort (void) {
     770:	eafffffe 	b	770 <__cs3_isr_dabort>

00000774 <__cs3_isr_fiq>:
	while(1);
}

void __attribute__ ((interrupt)) __cs3_isr_fiq (void) {
     774:	eafffffe 	b	774 <__cs3_isr_fiq>

00000778 <fix_bug>:
	while(1);
}

void fix_bug() {
	volatile int * addr = (int *)0xFFFED198;
	*addr = 0x000C0000;
     778:	e3a02703 	mov	r2, #786432	; 0xc0000
     77c:	e3e03a12 	mvn	r3, #73728	; 0x12000
     780:	e5032e67 	str	r2, [r3, #-3687]	; 0xfffff199
     784:	e12fff1e 	bx	lr

00000788 <int_setup>:
}

void int_setup(int len, int* IDs) {
     788:	e92d4038 	push	{r3, r4, r5, lr}
     78c:	e1a05000 	mov	r5, r0
     790:	e1a04001 	mov	r4, r1
	disable_A9_interrupts();
     794:	ebffff7a 	bl	584 <disable_A9_interrupts>
	set_A9_IRQ_stack();
     798:	ebffff7f 	bl	59c <set_A9_IRQ_stack>
	fix_bug();
     79c:	ebfffff5 	bl	778 <fix_bug>
	config_GIC(len, IDs);
     7a0:	e1a00005 	mov	r0, r5
     7a4:	e1a01004 	mov	r1, r4
     7a8:	ebffff8f 	bl	5ec <config_GIC>
	enable_A9_interrupts();
     7ac:	ebffff77 	bl	590 <enable_A9_interrupts>
     7b0:	e8bd8038 	pop	{r3, r4, r5, pc}

000007b4 <clear_ispressed>:
const float NOTE_LOOKUP[] = {130.813, 146.832, 164.814, 174.614, 195.998, 220.000, 246.942, 261.626, 293.665, 329.628, 349.228, 391.995, 440.000, 493.883, 523.251};
const int NUM_NOTES = 15;

void clear_ispressed(char is_pressed[]) {
	int i;
	for (i = 0; i < NUM_NOTES; i++) is_pressed[i] = 0;
     7b4:	e3a03000 	mov	r3, #0
     7b8:	e1a02003 	mov	r2, r3
     7bc:	e7c02003 	strb	r2, [r0, r3]
     7c0:	e2833001 	add	r3, r3, #1
     7c4:	e353000f 	cmp	r3, #15
     7c8:	1afffffb 	bne	7bc <clear_ispressed+0x8>
}
     7cc:	e12fff1e 	bx	lr

000007d0 <make_wave>:

int make_wave(int instant, float frequency) {
     7d0:	e92d40f8 	push	{r3, r4, r5, r6, r7, lr}
     7d4:	e1a04001 	mov	r4, r1
	int index = (int)(frequency * (float)instant) % SAMPLE_RATE;
     7d8:	eb000652 	bl	2128 <__aeabi_i2f>
     7dc:	e1a01004 	mov	r1, r4
     7e0:	eb000687 	bl	2204 <__aeabi_fmul>
     7e4:	eb000744 	bl	24fc <__aeabi_f2iz>
     7e8:	e30179f1 	movw	r7, #6641	; 0x19f1
     7ec:	e3407576 	movt	r7, #1398	; 0x576
     7f0:	e0c73097 	smull	r3, r7, r7, r0
     7f4:	e1a03fc0 	asr	r3, r0, #31
     7f8:	e0637547 	rsb	r7, r3, r7, asr #10
     7fc:	e30b3b80 	movw	r3, #48000	; 0xbb80
     800:	e0670793 	mls	r7, r3, r7, r0
	float interpolation = (float)(index - (int)index);
	return (1.0 - interpolation) * (float)sine[(int)index] +
     804:	e3026a58 	movw	r6, #10840	; 0x2a58
     808:	e3406000 	movt	r6, #0
     80c:	e7960107 	ldr	r0, [r6, r7, lsl #2]
     810:	eb000644 	bl	2128 <__aeabi_i2f>
     814:	eb000464 	bl	19ac <__aeabi_f2d>
     818:	e1a04000 	mov	r4, r0
     81c:	e1a05001 	mov	r5, r1
				 (interpolation) * (float)sine[(int)index + 1];
     820:	e2877001 	add	r7, r7, #1
     824:	e7960107 	ldr	r0, [r6, r7, lsl #2]
     828:	eb00063e 	bl	2128 <__aeabi_i2f>
     82c:	e3a01000 	mov	r1, #0
     830:	eb000673 	bl	2204 <__aeabi_fmul>
}

int make_wave(int instant, float frequency) {
	int index = (int)(frequency * (float)instant) % SAMPLE_RATE;
	float interpolation = (float)(index - (int)index);
	return (1.0 - interpolation) * (float)sine[(int)index] +
     834:	eb00045c 	bl	19ac <__aeabi_f2d>
     838:	e1a02000 	mov	r2, r0
     83c:	e1a03001 	mov	r3, r1
     840:	e1a00004 	mov	r0, r4
     844:	e1a01005 	mov	r1, r5
     848:	eb000380 	bl	1650 <__adddf3>
     84c:	eb0005aa 	bl	1efc <__aeabi_d2iz>
				 (interpolation) * (float)sine[(int)index + 1];
}
     850:	e8bd80f8 	pop	{r3, r4, r5, r6, r7, pc}

00000854 <HEX_clear_ASM>:
     854:	e3a01000 	mov	r1, #0
     858:	ea000004 	b	870 <WRITE>

0000085c <HEX_flood_ASM>:
     85c:	e3a0107f 	mov	r1, #127	; 0x7f
     860:	ea000002 	b	870 <WRITE>

00000864 <HEX_write_ASM>:
     864:	e59f2064 	ldr	r2, [pc, #100]	; 8d0 <PATTERNS+0x14>
     868:	e7d21001 	ldrb	r1, [r2, r1]
     86c:	eaffffff 	b	870 <WRITE>

00000870 <WRITE>:
     870:	e92d0030 	push	{r4, r5}
     874:	e59f2058 	ldr	r2, [pc, #88]	; 8d4 <PATTERNS+0x18>
     878:	e3a03000 	mov	r3, #0
     87c:	e3e050ff 	mvn	r5, #255	; 0xff

00000880 <LOOP>:
     880:	e3100001 	tst	r0, #1
     884:	0a000003 	beq	898 <CONTINUE>
     888:	e5924000 	ldr	r4, [r2]
     88c:	e0044005 	and	r4, r4, r5
     890:	e1844001 	orr	r4, r4, r1
     894:	e5824000 	str	r4, [r2]

00000898 <CONTINUE>:
     898:	e1a05c65 	ror	r5, r5, #24
     89c:	e1a01c61 	ror	r1, r1, #24
     8a0:	e2833001 	add	r3, r3, #1
     8a4:	e3530004 	cmp	r3, #4
     8a8:	059f2028 	ldreq	r2, [pc, #40]	; 8d8 <PATTERNS+0x1c>
     8ac:	e1b000a0 	lsrs	r0, r0, #1
     8b0:	1afffff2 	bne	880 <LOOP>
     8b4:	e8bd0030 	pop	{r4, r5}
     8b8:	e12fff1e 	bx	lr

000008bc <PATTERNS>:
     8bc:	4f5b063f 	.word	0x4f5b063f
     8c0:	077d6d66 	.word	0x077d6d66
     8c4:	7c776f7f 	.word	0x7c776f7f
     8c8:	71795e39 	.word	0x71795e39
     8cc:	000000ff 	.word	0x000000ff
     8d0:	000008bc 	.word	0x000008bc
     8d4:	ff200020 	.word	0xff200020
     8d8:	ff200030 	.word	0xff200030

000008dc <HPS_TIM_config_ASM>:
     8dc:	e92d40f0 	push	{r4, r5, r6, r7, lr}
     8e0:	e3a01000 	mov	r1, #0
     8e4:	e3a02001 	mov	r2, #1
     8e8:	e5907000 	ldr	r7, [r0]
     8ec:	eaffffff 	b	8f0 <LOOP>

000008f0 <LOOP>:
     8f0:	e1170112 	tst	r7, r2, lsl r1
     8f4:	0a000000 	beq	8fc <CONTINUE>
     8f8:	eb000004 	bl	910 <CONFIG>

000008fc <CONTINUE>:
     8fc:	e2811001 	add	r1, r1, #1
     900:	e3510004 	cmp	r1, #4
     904:	bafffff9 	blt	8f0 <LOOP>

00000908 <DONE>:
     908:	e8bd40f0 	pop	{r4, r5, r6, r7, lr}
     90c:	e12fff1e 	bx	lr

00000910 <CONFIG>:
     910:	e52de004 	push	{lr}		; (str lr, [sp, #-4]!)
     914:	e59f30e4 	ldr	r3, [pc, #228]	; a00 <HPS_TIM_BASE+0x10>
     918:	e7934101 	ldr	r4, [r3, r1, lsl #2]
     91c:	eb000005 	bl	938 <DISABLE>
     920:	eb000008 	bl	948 <SET_LOAD_VAL>
     924:	eb00000e 	bl	964 <SET_LOAD_BIT>
     928:	eb000013 	bl	97c <SET_INT_BIT>
     92c:	eb000019 	bl	998 <SET_EN_BIT>
     930:	e49de004 	pop	{lr}		; (ldr lr, [sp], #4)
     934:	e12fff1e 	bx	lr

00000938 <DISABLE>:
     938:	e5945008 	ldr	r5, [r4, #8]
     93c:	e3c55001 	bic	r5, r5, #1
     940:	e5845008 	str	r5, [r4, #8]
     944:	e12fff1e 	bx	lr

00000948 <SET_LOAD_VAL>:
     948:	e5905004 	ldr	r5, [r0, #4]
     94c:	e3a06019 	mov	r6, #25
     950:	e0050695 	mul	r5, r5, r6
     954:	e3510002 	cmp	r1, #2
     958:	b1a05105 	lsllt	r5, r5, #2
     95c:	e5845000 	str	r5, [r4]
     960:	e12fff1e 	bx	lr

00000964 <SET_LOAD_BIT>:
     964:	e5945008 	ldr	r5, [r4, #8]
     968:	e5906008 	ldr	r6, [r0, #8]
     96c:	e3c55002 	bic	r5, r5, #2
     970:	e1855086 	orr	r5, r5, r6, lsl #1
     974:	e5845008 	str	r5, [r4, #8]
     978:	e12fff1e 	bx	lr

0000097c <SET_INT_BIT>:
     97c:	e5945008 	ldr	r5, [r4, #8]
     980:	e590600c 	ldr	r6, [r0, #12]
     984:	e2266001 	eor	r6, r6, #1
     988:	e3c55004 	bic	r5, r5, #4
     98c:	e1855106 	orr	r5, r5, r6, lsl #2
     990:	e5845008 	str	r5, [r4, #8]
     994:	e12fff1e 	bx	lr

00000998 <SET_EN_BIT>:
     998:	e5945008 	ldr	r5, [r4, #8]
     99c:	e5906010 	ldr	r6, [r0, #16]
     9a0:	e3c55001 	bic	r5, r5, #1
     9a4:	e1855006 	orr	r5, r5, r6
     9a8:	e5845008 	str	r5, [r4, #8]
     9ac:	e12fff1e 	bx	lr

000009b0 <HPS_TIM_clear_INT_ASM>:
     9b0:	e52de004 	push	{lr}		; (str lr, [sp, #-4]!)
     9b4:	e3a01000 	mov	r1, #0
     9b8:	e3a02001 	mov	r2, #1
     9bc:	eaffffff 	b	9c0 <INT_LOOP>

000009c0 <INT_LOOP>:
     9c0:	e1100112 	tst	r0, r2, lsl r1
     9c4:	0a000000 	beq	9cc <INT_CONTINUE>
     9c8:	eb000004 	bl	9e0 <CLEAR_IT>

000009cc <INT_CONTINUE>:
     9cc:	e2811001 	add	r1, r1, #1
     9d0:	e3510004 	cmp	r1, #4
     9d4:	bafffff9 	blt	9c0 <INT_LOOP>

000009d8 <INT_DONE>:
     9d8:	e49de004 	pop	{lr}		; (ldr lr, [sp], #4)
     9dc:	e12fff1e 	bx	lr

000009e0 <CLEAR_IT>:
     9e0:	e59f3018 	ldr	r3, [pc, #24]	; a00 <HPS_TIM_BASE+0x10>
     9e4:	e7933101 	ldr	r3, [r3, r1, lsl #2]
     9e8:	e593300c 	ldr	r3, [r3, #12]
     9ec:	e12fff1e 	bx	lr

000009f0 <HPS_TIM_BASE>:
     9f0:	ffc08000 	.word	0xffc08000
     9f4:	ffc09000 	.word	0xffc09000
     9f8:	ffd00000 	.word	0xffd00000
     9fc:	ffd01000 	.word	0xffd01000
     a00:	000009f0 	.word	0x000009f0

00000a04 <hps_tim0_int_flag>:
     a04:	00000000 	.word	0x00000000

00000a08 <hps_tim1_int_flag>:
     a08:	00000000 	.word	0x00000000

00000a0c <pushbtn_int_flag>:
     a0c:	00000000 	.word	0x00000000

00000a10 <A9_PRIV_TIM_ISR>:

pushbtn_int_flag:   
	.word 0x0

A9_PRIV_TIM_ISR:
	BX LR
     a10:	e12fff1e 	bx	lr

00000a14 <HPS_GPIO1_ISR>:
	
HPS_GPIO1_ISR:
	BX LR
     a14:	e12fff1e 	bx	lr

00000a18 <HPS_TIM0_ISR>:
	
HPS_TIM0_ISR:
	PUSH {LR}
     a18:	e52de004 	push	{lr}		; (str lr, [sp, #-4]!)
    MOV R0, #0x1
     a1c:	e3a00001 	mov	r0, #1
    BL HPS_TIM_clear_INT_ASM
     a20:	ebffffe2 	bl	9b0 <HPS_TIM_clear_INT_ASM>
    LDR R0, =hps_tim0_int_flag
     a24:	e59f0058 	ldr	r0, [pc, #88]	; a84 <FPGA_PS2_DUAL_ISR+0x4>
    MOV R1, #1
     a28:	e3a01001 	mov	r1, #1
    STR R1, [R0]
     a2c:	e5801000 	str	r1, [r0]
    POP {LR}
     a30:	e49de004 	pop	{lr}		; (ldr lr, [sp], #4)
	BX LR
     a34:	e12fff1e 	bx	lr

00000a38 <HPS_TIM1_ISR>:
	
HPS_TIM1_ISR:
	PUSH {LR}
     a38:	e52de004 	push	{lr}		; (str lr, [sp, #-4]!)
    MOV R0, #0b0010
     a3c:	e3a00002 	mov	r0, #2
    BL HPS_TIM_clear_INT_ASM
     a40:	ebffffda 	bl	9b0 <HPS_TIM_clear_INT_ASM>
    LDR R0, =hps_tim1_int_flag
     a44:	e59f003c 	ldr	r0, [pc, #60]	; a88 <FPGA_PS2_DUAL_ISR+0x8>
    MOV R1, #1
     a48:	e3a01001 	mov	r1, #1
    STR R1, [R0]
     a4c:	e5801000 	str	r1, [r0]
    POP {LR}
     a50:	e49de004 	pop	{lr}		; (ldr lr, [sp], #4)
	BX LR
     a54:	e12fff1e 	bx	lr

00000a58 <HPS_TIM2_ISR>:
	
HPS_TIM2_ISR:
	BX LR
     a58:	e12fff1e 	bx	lr

00000a5c <HPS_TIM3_ISR>:
	
HPS_TIM3_ISR:
	BX LR
     a5c:	e12fff1e 	bx	lr

00000a60 <FPGA_INTERVAL_TIM_ISR>:
	
FPGA_INTERVAL_TIM_ISR:
	BX LR
     a60:	e12fff1e 	bx	lr

00000a64 <FPGA_PB_KEYS_ISR>:
	
FPGA_PB_KEYS_ISR:
	BX LR
     a64:	e12fff1e 	bx	lr

00000a68 <FPGA_Audio_ISR>:
	
FPGA_Audio_ISR:
	BX LR
     a68:	e12fff1e 	bx	lr

00000a6c <FPGA_PS2_ISR>:
	
FPGA_PS2_ISR:
	BX LR
     a6c:	e12fff1e 	bx	lr

00000a70 <FPGA_JTAG_ISR>:
	
FPGA_JTAG_ISR:
	BX LR
     a70:	e12fff1e 	bx	lr

00000a74 <FPGA_IrDA_ISR>:
	
FPGA_IrDA_ISR:
	BX LR
     a74:	e12fff1e 	bx	lr

00000a78 <FPGA_JP1_ISR>:
	
FPGA_JP1_ISR:
	BX LR
     a78:	e12fff1e 	bx	lr

00000a7c <FPGA_JP2_ISR>:
	
FPGA_JP2_ISR:
	BX LR
     a7c:	e12fff1e 	bx	lr

00000a80 <FPGA_PS2_DUAL_ISR>:
	
FPGA_PS2_DUAL_ISR:
	BX LR
     a80:	e12fff1e 	bx	lr
	
HPS_TIM0_ISR:
	PUSH {LR}
    MOV R0, #0x1
    BL HPS_TIM_clear_INT_ASM
    LDR R0, =hps_tim0_int_flag
     a84:	00000a04 	.word	0x00000a04
	
HPS_TIM1_ISR:
	PUSH {LR}
    MOV R0, #0b0010
    BL HPS_TIM_clear_INT_ASM
    LDR R0, =hps_tim1_int_flag
     a88:	00000a08 	.word	0x00000a08

00000a8c <read_LEDs_ASM>:
     a8c:	e59f1010 	ldr	r1, [pc, #16]	; aa4 <write_LEDs_ASM+0xc>
     a90:	e5910000 	ldr	r0, [r1]
     a94:	e12fff1e 	bx	lr

00000a98 <write_LEDs_ASM>:
     a98:	e59f1004 	ldr	r1, [pc, #4]	; aa4 <write_LEDs_ASM+0xc>
     a9c:	e5810000 	str	r0, [r1]
     aa0:	e12fff1e 	bx	lr
     aa4:	ff200000 	.word	0xff200000

00000aa8 <audio_read_data_ASM>:
     aa8:	e52de004 	push	{lr}		; (str lr, [sp, #-4]!)
     aac:	e92d0003 	push	{r0, r1}
     ab0:	eb000093 	bl	d04 <audio_read_ralc_ASM>
     ab4:	e3500000 	cmp	r0, #0
     ab8:	08bd0003 	popeq	{r0, r1}
     abc:	049de004 	popeq	{lr}		; (ldreq lr, [sp], #4)
     ac0:	03a00000 	moveq	r0, #0
     ac4:	012fff1e 	bxeq	lr
     ac8:	eb000092 	bl	d18 <audio_read_rarc_ASM>
     acc:	e3500000 	cmp	r0, #0
     ad0:	08bd0003 	popeq	{r0, r1}
     ad4:	03a00000 	moveq	r0, #0
     ad8:	012fff1e 	bxeq	lr
     adc:	e8bd0003 	pop	{r0, r1}
     ae0:	e59f2240 	ldr	r2, [pc, #576]	; d28 <audio_read_rarc_ASM+0x10>
     ae4:	e5922000 	ldr	r2, [r2]
     ae8:	e5802000 	str	r2, [r0]
     aec:	e59f3238 	ldr	r3, [pc, #568]	; d2c <audio_read_rarc_ASM+0x14>
     af0:	e5933000 	ldr	r3, [r3]
     af4:	e5813000 	str	r3, [r1]
     af8:	e3a00001 	mov	r0, #1

00000afc <audio_read_leftdata_ASM>:
     afc:	e52de004 	push	{lr}		; (str lr, [sp, #-4]!)
     b00:	e52d0004 	push	{r0}		; (str r0, [sp, #-4]!)
     b04:	eb00007e 	bl	d04 <audio_read_ralc_ASM>
     b08:	e3500000 	cmp	r0, #0
     b0c:	049d0004 	popeq	{r0}		; (ldreq r0, [sp], #4)
     b10:	049de004 	popeq	{lr}		; (ldreq lr, [sp], #4)
     b14:	03a00000 	moveq	r0, #0
     b18:	012fff1e 	bxeq	lr
     b1c:	e49d0004 	pop	{r0}		; (ldr r0, [sp], #4)
     b20:	e59f2200 	ldr	r2, [pc, #512]	; d28 <audio_read_rarc_ASM+0x10>
     b24:	e5922000 	ldr	r2, [r2]
     b28:	e5802000 	str	r2, [r0]
     b2c:	e3a00001 	mov	r0, #1
     b30:	e49de004 	pop	{lr}		; (ldr lr, [sp], #4)
     b34:	e12fff1e 	bx	lr

00000b38 <audio_read_rightdata_ASM>:
     b38:	e52de004 	push	{lr}		; (str lr, [sp, #-4]!)
     b3c:	e52d0004 	push	{r0}		; (str r0, [sp, #-4]!)
     b40:	eb000074 	bl	d18 <audio_read_rarc_ASM>
     b44:	e3500000 	cmp	r0, #0
     b48:	049d0004 	popeq	{r0}		; (ldreq r0, [sp], #4)
     b4c:	049de004 	popeq	{lr}		; (ldreq lr, [sp], #4)
     b50:	03a00000 	moveq	r0, #0
     b54:	012fff1e 	bxeq	lr
     b58:	e49d0004 	pop	{r0}		; (ldr r0, [sp], #4)
     b5c:	e59f21c8 	ldr	r2, [pc, #456]	; d2c <audio_read_rarc_ASM+0x14>
     b60:	e5922000 	ldr	r2, [r2]
     b64:	e5802000 	str	r2, [r0]
     b68:	e3a00001 	mov	r0, #1
     b6c:	e49de004 	pop	{lr}		; (ldr lr, [sp], #4)
     b70:	e12fff1e 	bx	lr

00000b74 <audio_write_data_ASM>:
     b74:	e52de004 	push	{lr}		; (str lr, [sp, #-4]!)
     b78:	e92d0003 	push	{r0, r1}
     b7c:	eb000056 	bl	cdc <audio_read_wslc_ASM>
     b80:	e3500000 	cmp	r0, #0
     b84:	08bd0003 	popeq	{r0, r1}
     b88:	049de004 	popeq	{lr}		; (ldreq lr, [sp], #4)
     b8c:	03a00000 	moveq	r0, #0
     b90:	012fff1e 	bxeq	lr
     b94:	eb000055 	bl	cf0 <audio_read_wsrc_ASM>
     b98:	e3500000 	cmp	r0, #0
     b9c:	08bd0003 	popeq	{r0, r1}
     ba0:	049de004 	popeq	{lr}		; (ldreq lr, [sp], #4)
     ba4:	03a00000 	moveq	r0, #0
     ba8:	012fff1e 	bxeq	lr
     bac:	e8bd0003 	pop	{r0, r1}
     bb0:	e59f2170 	ldr	r2, [pc, #368]	; d28 <audio_read_rarc_ASM+0x10>
     bb4:	e5820000 	str	r0, [r2]
     bb8:	e59f316c 	ldr	r3, [pc, #364]	; d2c <audio_read_rarc_ASM+0x14>
     bbc:	e5831000 	str	r1, [r3]
     bc0:	e3a00001 	mov	r0, #1
     bc4:	e49de004 	pop	{lr}		; (ldr lr, [sp], #4)
     bc8:	e12fff1e 	bx	lr

00000bcc <audio_write_leftdata_ASM>:
     bcc:	e52de004 	push	{lr}		; (str lr, [sp, #-4]!)
     bd0:	e52d0004 	push	{r0}		; (str r0, [sp, #-4]!)
     bd4:	eb000040 	bl	cdc <audio_read_wslc_ASM>
     bd8:	e3500000 	cmp	r0, #0
     bdc:	049d0004 	popeq	{r0}		; (ldreq r0, [sp], #4)
     be0:	049de004 	popeq	{lr}		; (ldreq lr, [sp], #4)
     be4:	03a00000 	moveq	r0, #0
     be8:	012fff1e 	bxeq	lr
     bec:	e49d0004 	pop	{r0}		; (ldr r0, [sp], #4)
     bf0:	e59f2130 	ldr	r2, [pc, #304]	; d28 <audio_read_rarc_ASM+0x10>
     bf4:	e5820000 	str	r0, [r2]
     bf8:	e3a00001 	mov	r0, #1
     bfc:	e49de004 	pop	{lr}		; (ldr lr, [sp], #4)
     c00:	e12fff1e 	bx	lr

00000c04 <audio_write_rightdata_ASM>:
     c04:	e52de004 	push	{lr}		; (str lr, [sp, #-4]!)
     c08:	e52d0004 	push	{r0}		; (str r0, [sp, #-4]!)
     c0c:	eb000037 	bl	cf0 <audio_read_wsrc_ASM>
     c10:	e3500000 	cmp	r0, #0
     c14:	049d0004 	popeq	{r0}		; (ldreq r0, [sp], #4)
     c18:	049de004 	popeq	{lr}		; (ldreq lr, [sp], #4)
     c1c:	03a00000 	moveq	r0, #0
     c20:	012fff1e 	bxeq	lr
     c24:	e49d0004 	pop	{r0}		; (ldr r0, [sp], #4)
     c28:	e59f20fc 	ldr	r2, [pc, #252]	; d2c <audio_read_rarc_ASM+0x14>
     c2c:	e5820000 	str	r0, [r2]
     c30:	e3a00001 	mov	r0, #1
     c34:	e49de004 	pop	{lr}		; (ldr lr, [sp], #4)
     c38:	e12fff1e 	bx	lr

00000c3c <audio_enable_read_fifo_clear_ASM>:
     c3c:	e59f00ec 	ldr	r0, [pc, #236]	; d30 <audio_read_rarc_ASM+0x18>
     c40:	e5901000 	ldr	r1, [r0]
     c44:	e3811004 	orr	r1, r1, #4
     c48:	e5801000 	str	r1, [r0]
     c4c:	e12fff1e 	bx	lr

00000c50 <audio_enable_write_fifo_clear_ASM>:
     c50:	e59f00d8 	ldr	r0, [pc, #216]	; d30 <audio_read_rarc_ASM+0x18>
     c54:	e5901000 	ldr	r1, [r0]
     c58:	e3811008 	orr	r1, r1, #8
     c5c:	e5801000 	str	r1, [r0]
     c60:	e12fff1e 	bx	lr

00000c64 <audio_disable_read_fifo_clear_ASM>:
     c64:	e59f00c4 	ldr	r0, [pc, #196]	; d30 <audio_read_rarc_ASM+0x18>
     c68:	e5901000 	ldr	r1, [r0]
     c6c:	e3c11004 	bic	r1, r1, #4
     c70:	e5801000 	str	r1, [r0]
     c74:	e12fff1e 	bx	lr

00000c78 <audio_disable_write_fifo_clear_ASM>:
     c78:	e59f00b0 	ldr	r0, [pc, #176]	; d30 <audio_read_rarc_ASM+0x18>
     c7c:	e5901000 	ldr	r1, [r0]
     c80:	e3c11008 	bic	r1, r1, #8
     c84:	e5801000 	str	r1, [r0]
     c88:	e12fff1e 	bx	lr

00000c8c <audio_enable_read_int_ASM>:
     c8c:	e59f009c 	ldr	r0, [pc, #156]	; d30 <audio_read_rarc_ASM+0x18>
     c90:	e5901000 	ldr	r1, [r0]
     c94:	e3811001 	orr	r1, r1, #1
     c98:	e5801000 	str	r1, [r0]
     c9c:	e12fff1e 	bx	lr

00000ca0 <audio_enable_write_int_ASM>:
     ca0:	e59f0088 	ldr	r0, [pc, #136]	; d30 <audio_read_rarc_ASM+0x18>
     ca4:	e5901000 	ldr	r1, [r0]
     ca8:	e3811002 	orr	r1, r1, #2
     cac:	e5801000 	str	r1, [r0]
     cb0:	e12fff1e 	bx	lr

00000cb4 <audio_disable_read_int_ASM>:
     cb4:	e59f0074 	ldr	r0, [pc, #116]	; d30 <audio_read_rarc_ASM+0x18>
     cb8:	e5901000 	ldr	r1, [r0]
     cbc:	e3c11001 	bic	r1, r1, #1
     cc0:	e5801000 	str	r1, [r0]
     cc4:	e12fff1e 	bx	lr

00000cc8 <audio_disable_write_int_ASM>:
     cc8:	e59f0060 	ldr	r0, [pc, #96]	; d30 <audio_read_rarc_ASM+0x18>
     ccc:	e5901000 	ldr	r1, [r0]
     cd0:	e3c11002 	bic	r1, r1, #2
     cd4:	e5801000 	str	r1, [r0]
     cd8:	e12fff1e 	bx	lr

00000cdc <audio_read_wslc_ASM>:
     cdc:	e59f0050 	ldr	r0, [pc, #80]	; d34 <audio_read_rarc_ASM+0x1c>
     ce0:	e5900000 	ldr	r0, [r0]
     ce4:	e1a00c20 	lsr	r0, r0, #24
     ce8:	e20000ff 	and	r0, r0, #255	; 0xff
     cec:	e12fff1e 	bx	lr

00000cf0 <audio_read_wsrc_ASM>:
     cf0:	e59f003c 	ldr	r0, [pc, #60]	; d34 <audio_read_rarc_ASM+0x1c>
     cf4:	e5900000 	ldr	r0, [r0]
     cf8:	e1a00820 	lsr	r0, r0, #16
     cfc:	e20000ff 	and	r0, r0, #255	; 0xff
     d00:	e12fff1e 	bx	lr

00000d04 <audio_read_ralc_ASM>:
     d04:	e59f0028 	ldr	r0, [pc, #40]	; d34 <audio_read_rarc_ASM+0x1c>
     d08:	e5900000 	ldr	r0, [r0]
     d0c:	e1a00420 	lsr	r0, r0, #8
     d10:	e20000ff 	and	r0, r0, #255	; 0xff
     d14:	e12fff1e 	bx	lr

00000d18 <audio_read_rarc_ASM>:
     d18:	e59f0014 	ldr	r0, [pc, #20]	; d34 <audio_read_rarc_ASM+0x1c>
     d1c:	e5900000 	ldr	r0, [r0]
     d20:	e20000ff 	and	r0, r0, #255	; 0xff
     d24:	e12fff1e 	bx	lr
     d28:	ff203048 	.word	0xff203048
     d2c:	ff20304c 	.word	0xff20304c
     d30:	ff203040 	.word	0xff203040
     d34:	ff203044 	.word	0xff203044

00000d38 <read_ps2_data_ASM>:
     d38:	e59f114c 	ldr	r1, [pc, #332]	; e8c <ps2_fifo_ravail+0x4>
     d3c:	e5911000 	ldr	r1, [r1]
     d40:	e3a02902 	mov	r2, #32768	; 0x8000
     d44:	e1110002 	tst	r1, r2
     d48:	03a00000 	moveq	r0, #0
     d4c:	012fff1e 	bxeq	lr
     d50:	e20120ff 	and	r2, r1, #255	; 0xff
     d54:	e5c02000 	strb	r2, [r0]
     d58:	e59f2130 	ldr	r2, [pc, #304]	; e90 <ps2_fifo_ravail+0x8>
     d5c:	e0010002 	and	r0, r1, r2
     d60:	e1a00820 	lsr	r0, r0, #16
     d64:	e12fff1e 	bx	lr

00000d68 <enable_ps2_int_ASM>:
     d68:	e59f011c 	ldr	r0, [pc, #284]	; e8c <ps2_fifo_ravail+0x4>
     d6c:	e3a01001 	mov	r1, #1
     d70:	e5c01004 	strb	r1, [r0, #4]
     d74:	e12fff1e 	bx	lr

00000d78 <disable_ps2_int_ASM>:
     d78:	e59f010c 	ldr	r0, [pc, #268]	; e8c <ps2_fifo_ravail+0x4>
     d7c:	e3a01000 	mov	r1, #0
     d80:	e5c01004 	strb	r1, [r0, #4]
     d84:	e12fff1e 	bx	lr

00000d88 <ps2_fifo_data>:
	...

00000e88 <ps2_fifo_ravail>:
     e88:	00000000 	.word	0x00000000
     e8c:	ff200100 	.word	0xff200100
     e90:	ffff0000 	.word	0xffff0000

00000e94 <read_PB_data_ASM>:
     e94:	e59f1074 	ldr	r1, [pc, #116]	; f10 <disable_PB_INT_ASM+0x14>
     e98:	e5910000 	ldr	r0, [r1]
     e9c:	e12fff1e 	bx	lr

00000ea0 <PB_data_is_pressed_ASM>:
     ea0:	e59f1068 	ldr	r1, [pc, #104]	; f10 <disable_PB_INT_ASM+0x14>
     ea4:	e5912000 	ldr	r2, [r1]
     ea8:	e0000002 	and	r0, r0, r2
     eac:	e3300000 	teq	r0, #0
     eb0:	13a00001 	movne	r0, #1
     eb4:	e12fff1e 	bx	lr

00000eb8 <read_PB_edgecap_ASM>:
     eb8:	e59f1054 	ldr	r1, [pc, #84]	; f14 <disable_PB_INT_ASM+0x18>
     ebc:	e5910000 	ldr	r0, [r1]
     ec0:	e12fff1e 	bx	lr

00000ec4 <PB_edgecap_is_pressed_ASM>:
     ec4:	e59f1048 	ldr	r1, [pc, #72]	; f14 <disable_PB_INT_ASM+0x18>
     ec8:	e5912000 	ldr	r2, [r1]
     ecc:	e0000002 	and	r0, r0, r2
     ed0:	e3300000 	teq	r0, #0
     ed4:	13a00001 	movne	r0, #1
     ed8:	e12fff1e 	bx	lr

00000edc <PB_clear_edgecp_ASM>:
     edc:	e59f1030 	ldr	r1, [pc, #48]	; f14 <disable_PB_INT_ASM+0x18>
     ee0:	e5810000 	str	r0, [r1]
     ee4:	e12fff1e 	bx	lr

00000ee8 <enable_PB_INT_ASM>:
     ee8:	e59f1028 	ldr	r1, [pc, #40]	; f18 <disable_PB_INT_ASM+0x1c>
     eec:	e5912000 	ldr	r2, [r1]
     ef0:	e1800002 	orr	r0, r0, r2
     ef4:	e5810000 	str	r0, [r1]
     ef8:	e12fff1e 	bx	lr

00000efc <disable_PB_INT_ASM>:
     efc:	e59f1014 	ldr	r1, [pc, #20]	; f18 <disable_PB_INT_ASM+0x1c>
     f00:	e5912000 	ldr	r2, [r1]
     f04:	e1c00002 	bic	r0, r0, r2
     f08:	e5810000 	str	r0, [r1]
     f0c:	e12fff1e 	bx	lr
     f10:	ff200050 	.word	0xff200050
     f14:	ff20005c 	.word	0xff20005c
     f18:	ff200058 	.word	0xff200058

00000f1c <read_slider_switches_ASM>:
     f1c:	e59f1004 	ldr	r1, [pc, #4]	; f28 <read_slider_switches_ASM+0xc>
     f20:	e5910000 	ldr	r0, [r1]
     f24:	e12fff1e 	bx	lr
     f28:	ff200040 	.word	0xff200040

00000f2c <VGA_clear_charbuff_ASM>:
     f2c:	e92d0030 	push	{r4, r5}
     f30:	e3a02000 	mov	r2, #0
     f34:	e3a034c9 	mov	r3, #-922746880	; 0xc9000000
     f38:	e3a00000 	mov	r0, #0

00000f3c <CHAR_LOOPX>:
     f3c:	e3a01000 	mov	r1, #0
     f40:	e0834000 	add	r4, r3, r0

00000f44 <CHAR_LOOPY>:
     f44:	e0845381 	add	r5, r4, r1, lsl #7
     f48:	e5c52000 	strb	r2, [r5]
     f4c:	e2811001 	add	r1, r1, #1
     f50:	e351003c 	cmp	r1, #60	; 0x3c
     f54:	bafffffa 	blt	f44 <CHAR_LOOPY>
     f58:	e2800001 	add	r0, r0, #1
     f5c:	e3500050 	cmp	r0, #80	; 0x50
     f60:	bafffff5 	blt	f3c <CHAR_LOOPX>
     f64:	e8bd0030 	pop	{r4, r5}
     f68:	e12fff1e 	bx	lr

00000f6c <VGA_clear_pixelbuff_ASM>:
     f6c:	e92d0030 	push	{r4, r5}
     f70:	e3a02000 	mov	r2, #0
     f74:	e3a03332 	mov	r3, #-939524096	; 0xc8000000
     f78:	e3a00000 	mov	r0, #0

00000f7c <PIXEL_LOOPX>:
     f7c:	e3a01000 	mov	r1, #0
     f80:	e0834080 	add	r4, r3, r0, lsl #1

00000f84 <PIXEL_LOOPY>:
     f84:	e0845501 	add	r5, r4, r1, lsl #10
     f88:	e1c520b0 	strh	r2, [r5]
     f8c:	e2811001 	add	r1, r1, #1
     f90:	e35100f0 	cmp	r1, #240	; 0xf0
     f94:	bafffffa 	blt	f84 <PIXEL_LOOPY>
     f98:	e2800001 	add	r0, r0, #1
     f9c:	e3500d05 	cmp	r0, #320	; 0x140
     fa0:	bafffff5 	blt	f7c <PIXEL_LOOPX>
     fa4:	e8bd0030 	pop	{r4, r5}
     fa8:	e12fff1e 	bx	lr

00000fac <VGA_write_char_ASM>:
     fac:	e3500000 	cmp	r0, #0
     fb0:	b12fff1e 	bxlt	lr
     fb4:	e3510000 	cmp	r1, #0
     fb8:	b12fff1e 	bxlt	lr
     fbc:	e350004f 	cmp	r0, #79	; 0x4f
     fc0:	c12fff1e 	bxgt	lr
     fc4:	e351003b 	cmp	r1, #59	; 0x3b
     fc8:	c12fff1e 	bxgt	lr
     fcc:	e3a034c9 	mov	r3, #-922746880	; 0xc9000000
     fd0:	e0833000 	add	r3, r3, r0
     fd4:	e0833381 	add	r3, r3, r1, lsl #7
     fd8:	e5c32000 	strb	r2, [r3]
     fdc:	e12fff1e 	bx	lr

00000fe0 <VGA_write_byte_ASM>:
     fe0:	e3500000 	cmp	r0, #0
     fe4:	b12fff1e 	bxlt	lr
     fe8:	e3510000 	cmp	r1, #0
     fec:	b12fff1e 	bxlt	lr
     ff0:	e350004e 	cmp	r0, #78	; 0x4e
     ff4:	c12fff1e 	bxgt	lr
     ff8:	e351003b 	cmp	r1, #59	; 0x3b
     ffc:	c12fff1e 	bxgt	lr
    1000:	e92d0030 	push	{r4, r5}
    1004:	e3a034c9 	mov	r3, #-922746880	; 0xc9000000
    1008:	e20250f0 	and	r5, r2, #240	; 0xf0
    100c:	e1a05225 	lsr	r5, r5, #4
    1010:	e202400f 	and	r4, r2, #15
    1014:	e59f2068 	ldr	r2, [pc, #104]	; 1084 <HEX_ASCII+0x10>
    1018:	e7d25005 	ldrb	r5, [r2, r5]
    101c:	e7d24004 	ldrb	r4, [r2, r4]
    1020:	e0833000 	add	r3, r3, r0
    1024:	e0833381 	add	r3, r3, r1, lsl #7
    1028:	e5c35000 	strb	r5, [r3]
    102c:	e2833001 	add	r3, r3, #1
    1030:	e5c34000 	strb	r4, [r3]
    1034:	e8bd0030 	pop	{r4, r5}
    1038:	e12fff1e 	bx	lr

0000103c <VGA_draw_point_ASM>:
    103c:	e59f3044 	ldr	r3, [pc, #68]	; 1088 <HEX_ASCII+0x14>
    1040:	e3500000 	cmp	r0, #0
    1044:	b12fff1e 	bxlt	lr
    1048:	e3510000 	cmp	r1, #0
    104c:	b12fff1e 	bxlt	lr
    1050:	e1500003 	cmp	r0, r3
    1054:	c12fff1e 	bxgt	lr
    1058:	e35100ef 	cmp	r1, #239	; 0xef
    105c:	c12fff1e 	bxgt	lr
    1060:	e3a03332 	mov	r3, #-939524096	; 0xc8000000
    1064:	e0833080 	add	r3, r3, r0, lsl #1
    1068:	e0833501 	add	r3, r3, r1, lsl #10
    106c:	e1c320b0 	strh	r2, [r3]
    1070:	e12fff1e 	bx	lr

00001074 <HEX_ASCII>:
    1074:	33323130 	.word	0x33323130
    1078:	37363534 	.word	0x37363534
    107c:	42413938 	.word	0x42413938
    1080:	46454443 	.word	0x46454443
    1084:	00001074 	.word	0x00001074
    1088:	0000013f 	.word	0x0000013f

0000108c <main>:
#include "./drivers/inc/display_util.h"
#include "./drivers/inc/sound_util.h"

#define RENDER_FREQ 5

int main() {
    108c:	e92d4ff0 	push	{r4, r5, r6, r7, r8, r9, r10, r11, lr}
    1090:	e28db020 	add	r11, sp, #32
    1094:	e24dd04c 	sub	sp, sp, #76	; 0x4c

	// Application States declearation
	int display[VGA_COL_LEN];
    1098:	e302397c 	movw	r3, #10620	; 0x297c
    109c:	e3403000 	movt	r3, #0
    10a0:	e5932000 	ldr	r2, [r3]
    10a4:	e1a02102 	lsl	r2, r2, #2
    10a8:	e282200a 	add	r2, r2, #10
    10ac:	e3c22007 	bic	r2, r2, #7
    10b0:	e04dd002 	sub	sp, sp, r2
    10b4:	e50bd060 	str	sp, [r11, #-96]	; 0xffffffa0
	char is_specific_btn_pressed[NUM_NOTES];
    10b8:	e30239b4 	movw	r3, #10676	; 0x29b4
    10bc:	e3403000 	movt	r3, #0
    10c0:	e5937000 	ldr	r7, [r3]
    10c4:	e2873007 	add	r3, r7, #7
    10c8:	e3c33007 	bic	r3, r3, #7
    10cc:	e04dd003 	sub	sp, sp, r3
    10d0:	e1a0400d 	mov	r4, sp
    10d4:	e1a0600d 	mov	r6, sp
	int current_pixels[VGA_COL_LEN];
    10d8:	e04dd002 	sub	sp, sp, r2
	int is_break = 0;
	int ampl = 5;
	int instance = 0;

	// Application States initiallization
	clear_signal(display, current_pixels);
    10dc:	e51b0060 	ldr	r0, [r11, #-96]	; 0xffffffa0
    10e0:	e1a0100d 	mov	r1, sp
    10e4:	ebfffc5c 	bl	25c <clear_signal>
	clear_ispressed(is_specific_btn_pressed);
    10e8:	e50b4068 	str	r4, [r11, #-104]	; 0xffffff98
    10ec:	e1a00004 	mov	r0, r4
    10f0:	ebfffdaf 	bl	7b4 <clear_ispressed>
	VGA_clear_charbuff_ASM();
    10f4:	ebffff8c 	bl	f2c <VGA_clear_charbuff_ASM>

	// Transfer Variables
	int signal = 0;
	char to_read = 0;
    10f8:	e3a04000 	mov	r4, #0
    10fc:	e54b4029 	strb	r4, [r11, #-41]	; 0xffffffd7

	// Interrupt Timer for Sampling
	int_setup(1, (int []){199});
    1100:	e24b1024 	sub	r1, r11, #36	; 0x24
    1104:	e3a030c7 	mov	r3, #199	; 0xc7
    1108:	e5213004 	str	r3, [r1, #-4]!
    110c:	e3a00001 	mov	r0, #1
    1110:	ebfffd9c 	bl	788 <int_setup>

	HPS_TIM_config_t hps_tim_aud;

	hps_tim_aud.tim = TIM0;
    1114:	e3a03001 	mov	r3, #1
    1118:	e54b3044 	strb	r3, [r11, #-68]	; 0xffffffbc
	hps_tim_aud.timeout = 20;
    111c:	e3a02014 	mov	r2, #20
    1120:	e50b2040 	str	r2, [r11, #-64]	; 0xffffffc0
	hps_tim_aud.LD_en = 1;
    1124:	e50b303c 	str	r3, [r11, #-60]	; 0xffffffc4
	hps_tim_aud.INT_en = 1;
    1128:	e50b3038 	str	r3, [r11, #-56]	; 0xffffffc8
	hps_tim_aud.enable = 1;
    112c:	e50b3034 	str	r3, [r11, #-52]	; 0xffffffcc

	HPS_TIM_config_ASM(&hps_tim_aud);
    1130:	e24b0044 	sub	r0, r11, #68	; 0x44
    1134:	ebfffde8 	bl	8dc <HPS_TIM_config_ASM>
	int display[VGA_COL_LEN];
	char is_specific_btn_pressed[NUM_NOTES];
	int current_pixels[VGA_COL_LEN];
	int is_break = 0;
	int ampl = 5;
	int instance = 0;
    1138:	e1a08004 	mov	r8, r4
	// Application States declearation
	int display[VGA_COL_LEN];
	char is_specific_btn_pressed[NUM_NOTES];
	int current_pixels[VGA_COL_LEN];
	int is_break = 0;
	int ampl = 5;
    113c:	e3a00005 	mov	r0, #5
    1140:	e50b0050 	str	r0, [r11, #-80]	; 0xffffffb0

	// Application States declearation
	int display[VGA_COL_LEN];
	char is_specific_btn_pressed[NUM_NOTES];
	int current_pixels[VGA_COL_LEN];
	int is_break = 0;
    1144:	e50b404c 	str	r4, [r11, #-76]	; 0xffffffb4
						is_break = 0;
					}
					break;
				case 0x1E:
					if (is_break) {
						ampl = (ampl + 1) % 10;
    1148:	e3061667 	movw	r1, #26215	; 0x6667
    114c:	e3461666 	movt	r1, #26214	; 0x6666
    1150:	e50b105c 	str	r1, [r11, #-92]	; 0xffffffa4
					is_break = 0;
			}
		}
		// handle_note_pressed_listener(is_specific_btn_pressed, &is_break, &to_read, &ampl);

		if (hps_tim0_int_flag == 1) {
    1154:	e3002a04 	movw	r2, #2564	; 0xa04
    1158:	e3402000 	movt	r2, #0
    115c:	e50b2048 	str	r2, [r11, #-72]	; 0xffffffb8
					count_note = count_note + 1;
				}
			}
			if (count_note > 0) signal = (total * ampl) / (10);
			else signal = 0;
			instance = (instance + 1) % 48000;
    1160:	e30139f1 	movw	r3, #6641	; 0x19f1
    1164:	e3403576 	movt	r3, #1398	; 0x576
    1168:	e50b3054 	str	r3, [r11, #-84]	; 0xffffffac

			audio_write_data_ASM(signal << 3, signal << 3);

			int col = instance % (refresh);
    116c:	e30801b5 	movw	r0, #33205	; 0x81b5
    1170:	e3410b4e 	movt	r0, #6990	; 0x1b4e
    1174:	e50b0058 	str	r0, [r11, #-88]	; 0xffffffa8

			if (col >=0 && col <=319) {
				VGA_draw_point_ASM(col, display[col], 0x8EFF);
				display[col] = (int)(((double)signal / (AMP * count_note)) * 80) + 140;
    1178:	e3021978 	movw	r1, #10616	; 0x2978
    117c:	e3401000 	movt	r1, #0
    1180:	e50b1064 	str	r1, [r11, #-100]	; 0xffffff9c
	int refresh = 48000 / RENDER_FREQ;

	// Point of Injection
	while(1) {

		if (read_ps2_data_ASM(&to_read)) {
    1184:	e24b0029 	sub	r0, r11, #41	; 0x29
    1188:	ebfffeea 	bl	d38 <read_ps2_data_ASM>
    118c:	e3500000 	cmp	r0, #0
    1190:	0a0000cf 	beq	14d4 <main+0x448>
			switch (to_read) {
    1194:	e55b3029 	ldrb	r3, [r11, #-41]	; 0xffffffd7
    1198:	e353002a 	cmp	r3, #42	; 0x2a
    119c:	0a000087 	beq	13c0 <main+0x334>
    11a0:	8a000013 	bhi	11f4 <main+0x168>
    11a4:	e353001c 	cmp	r3, #28
    11a8:	0a00002c 	beq	1260 <main+0x1d4>
    11ac:	8a000005 	bhi	11c8 <main+0x13c>
    11b0:	e353001a 	cmp	r3, #26
    11b4:	0a000069 	beq	1360 <main+0x2d4>
    11b8:	8a000030 	bhi	1280 <main+0x1f4>
    11bc:	e3530016 	cmp	r3, #22
    11c0:	1a0000c0 	bne	14c8 <main+0x43c>
    11c4:	ea00009d 	b	1440 <main+0x3b4>
    11c8:	e3530021 	cmp	r3, #33	; 0x21
    11cc:	0a000073 	beq	13a0 <main+0x314>
    11d0:	8a000002 	bhi	11e0 <main+0x154>
    11d4:	e353001e 	cmp	r3, #30
    11d8:	1a0000ba 	bne	14c8 <main+0x43c>
    11dc:	ea0000aa 	b	148c <main+0x400>
    11e0:	e3530022 	cmp	r3, #34	; 0x22
    11e4:	0a000065 	beq	1380 <main+0x2f4>
    11e8:	e3530023 	cmp	r3, #35	; 0x23
    11ec:	1a0000b5 	bne	14c8 <main+0x43c>
    11f0:	ea00002a 	b	12a0 <main+0x214>
    11f4:	e353003b 	cmp	r3, #59	; 0x3b
    11f8:	0a000038 	beq	12e0 <main+0x254>
    11fc:	8a00000a 	bhi	122c <main+0x1a0>
    1200:	e3530031 	cmp	r3, #49	; 0x31
    1204:	0a00007d 	beq	1400 <main+0x374>
    1208:	8a000002 	bhi	1218 <main+0x18c>
    120c:	e353002b 	cmp	r3, #43	; 0x2b
    1210:	1a0000ac 	bne	14c8 <main+0x43c>
    1214:	ea000029 	b	12c0 <main+0x234>
    1218:	e3530032 	cmp	r3, #50	; 0x32
    121c:	0a00006f 	beq	13e0 <main+0x354>
    1220:	e353003a 	cmp	r3, #58	; 0x3a
    1224:	1a0000a7 	bne	14c8 <main+0x43c>
    1228:	ea00007c 	b	1420 <main+0x394>
    122c:	e353004b 	cmp	r3, #75	; 0x4b
    1230:	0a00003a 	beq	1320 <main+0x294>
    1234:	8a000002 	bhi	1244 <main+0x1b8>
    1238:	e3530042 	cmp	r3, #66	; 0x42
    123c:	1a0000a1 	bne	14c8 <main+0x43c>
    1240:	ea00002e 	b	1300 <main+0x274>
    1244:	e353004c 	cmp	r3, #76	; 0x4c
    1248:	0a00003c 	beq	1340 <main+0x2b4>
    124c:	e35300f0 	cmp	r3, #240	; 0xf0
						ampl = (ampl + 1) % 10;
						is_break = 0;
					}
					break;
				case 0xF0:
					is_break = 1;
    1250:	03a02001 	moveq	r2, #1
    1254:	050b204c 	streq	r2, [r11, #-76]	; 0xffffffb4

	// Point of Injection
	while(1) {

		if (read_ps2_data_ASM(&to_read)) {
			switch (to_read) {
    1258:	0a00009d 	beq	14d4 <main+0x448>
    125c:	ea000099 	b	14c8 <main+0x43c>
				case 0x1C: // A -> C
					if (is_break) {
    1260:	e51b304c 	ldr	r3, [r11, #-76]	; 0xffffffb4
    1264:	e3530000 	cmp	r3, #0
						is_specific_btn_pressed[0] = 0;
    1268:	13a03000 	movne	r3, #0
    126c:	15c63000 	strbne	r3, [r6]
						is_break = 0;
    1270:	150b304c 	strne	r3, [r11, #-76]	; 0xffffffb4
					} else {
						is_specific_btn_pressed[0] = 1;
    1274:	03a03001 	moveq	r3, #1
    1278:	05c63000 	strbeq	r3, [r6]
    127c:	ea000094 	b	14d4 <main+0x448>
					}
					break;
				case 0x1B: // S -> D
					if (is_break) {
    1280:	e51b004c 	ldr	r0, [r11, #-76]	; 0xffffffb4
    1284:	e3500000 	cmp	r0, #0
						is_specific_btn_pressed[1] = 0;
    1288:	13a03000 	movne	r3, #0
    128c:	15c63001 	strbne	r3, [r6, #1]
						is_break = 0;
    1290:	150b304c 	strne	r3, [r11, #-76]	; 0xffffffb4
					} else {
						is_specific_btn_pressed[1] = 1;
    1294:	03a03001 	moveq	r3, #1
    1298:	05c63001 	strbeq	r3, [r6, #1]
    129c:	ea00008c 	b	14d4 <main+0x448>
					}
					break;
				case 0x23: // D -> E
					if (is_break) {
    12a0:	e51b104c 	ldr	r1, [r11, #-76]	; 0xffffffb4
    12a4:	e3510000 	cmp	r1, #0
						is_specific_btn_pressed[2] = 0;
    12a8:	13a03000 	movne	r3, #0
    12ac:	15c63002 	strbne	r3, [r6, #2]
						is_break = 0;
    12b0:	150b304c 	strne	r3, [r11, #-76]	; 0xffffffb4
					} else {
						is_specific_btn_pressed[2] = 1;
    12b4:	03a03001 	moveq	r3, #1
    12b8:	05c63002 	strbeq	r3, [r6, #2]
    12bc:	ea000084 	b	14d4 <main+0x448>
					}
					break;
				case 0x2B: // F -> F
					if (is_break) {
    12c0:	e51b204c 	ldr	r2, [r11, #-76]	; 0xffffffb4
    12c4:	e3520000 	cmp	r2, #0
						is_specific_btn_pressed[3] = 0;
    12c8:	13a03000 	movne	r3, #0
    12cc:	15c63003 	strbne	r3, [r6, #3]
						is_break = 0;
    12d0:	150b304c 	strne	r3, [r11, #-76]	; 0xffffffb4
					} else {
						is_specific_btn_pressed[3] = 1;
    12d4:	03a03001 	moveq	r3, #1
    12d8:	05c63003 	strbeq	r3, [r6, #3]
    12dc:	ea00007c 	b	14d4 <main+0x448>
					}
					break;
				case 0x3B: // J -> G
					if (is_break) {
    12e0:	e51b304c 	ldr	r3, [r11, #-76]	; 0xffffffb4
    12e4:	e3530000 	cmp	r3, #0
						is_specific_btn_pressed[4] = 0;
    12e8:	13a03000 	movne	r3, #0
    12ec:	15c63004 	strbne	r3, [r6, #4]
						is_break = 0;
    12f0:	150b304c 	strne	r3, [r11, #-76]	; 0xffffffb4
					} else {
						is_specific_btn_pressed[4] = 1;
    12f4:	03a03001 	moveq	r3, #1
    12f8:	05c63004 	strbeq	r3, [r6, #4]
    12fc:	ea000074 	b	14d4 <main+0x448>
					}
					break;
				case 0x42: // K -> A
					if (is_break) {
    1300:	e51b004c 	ldr	r0, [r11, #-76]	; 0xffffffb4
    1304:	e3500000 	cmp	r0, #0
						is_specific_btn_pressed[5] = 0;
    1308:	13a03000 	movne	r3, #0
    130c:	15c63005 	strbne	r3, [r6, #5]
						is_break = 0;
    1310:	150b304c 	strne	r3, [r11, #-76]	; 0xffffffb4
					} else {
						is_specific_btn_pressed[5] = 1;
    1314:	03a03001 	moveq	r3, #1
    1318:	05c63005 	strbeq	r3, [r6, #5]
    131c:	ea00006c 	b	14d4 <main+0x448>
					}
					break;
				case 0x4B: // L -> B
					if (is_break) {
    1320:	e51b104c 	ldr	r1, [r11, #-76]	; 0xffffffb4
    1324:	e3510000 	cmp	r1, #0
						is_specific_btn_pressed[6] = 0;
    1328:	13a03000 	movne	r3, #0
    132c:	15c63006 	strbne	r3, [r6, #6]
						is_break = 0;
    1330:	150b304c 	strne	r3, [r11, #-76]	; 0xffffffb4
					} else {
						is_specific_btn_pressed[6] = 1;
    1334:	03a03001 	moveq	r3, #1
    1338:	05c63006 	strbeq	r3, [r6, #6]
    133c:	ea000064 	b	14d4 <main+0x448>
					}
					break;
				case 0x4C: // ; -> HC
					if (is_break) {
    1340:	e51b204c 	ldr	r2, [r11, #-76]	; 0xffffffb4
    1344:	e3520000 	cmp	r2, #0
						is_specific_btn_pressed[7] = 0;
    1348:	13a03000 	movne	r3, #0
    134c:	15c63007 	strbne	r3, [r6, #7]
						is_break = 0;
    1350:	150b304c 	strne	r3, [r11, #-76]	; 0xffffffb4
					} else {
						is_specific_btn_pressed[7] = 1;
    1354:	03a03001 	moveq	r3, #1
    1358:	05c63007 	strbeq	r3, [r6, #7]
    135c:	ea00005c 	b	14d4 <main+0x448>
					}
					break;
				case 0x1A: // Z -> HD
					if (is_break) {
    1360:	e51b304c 	ldr	r3, [r11, #-76]	; 0xffffffb4
    1364:	e3530000 	cmp	r3, #0
						is_specific_btn_pressed[8] = 0;
    1368:	13a03000 	movne	r3, #0
    136c:	15c63008 	strbne	r3, [r6, #8]
						is_break = 0;
    1370:	150b304c 	strne	r3, [r11, #-76]	; 0xffffffb4
					} else {
						is_specific_btn_pressed[8] = 1;
    1374:	03a03001 	moveq	r3, #1
    1378:	05c63008 	strbeq	r3, [r6, #8]
    137c:	ea000054 	b	14d4 <main+0x448>
					}
					break;
				case 0x22: // X -> HE
					if (is_break) {
    1380:	e51b004c 	ldr	r0, [r11, #-76]	; 0xffffffb4
    1384:	e3500000 	cmp	r0, #0
						is_specific_btn_pressed[9] = 0;
    1388:	13a03000 	movne	r3, #0
    138c:	15c63009 	strbne	r3, [r6, #9]
						is_break = 0;
    1390:	150b304c 	strne	r3, [r11, #-76]	; 0xffffffb4
					} else {
						is_specific_btn_pressed[9] = 1;
    1394:	03a03001 	moveq	r3, #1
    1398:	05c63009 	strbeq	r3, [r6, #9]
    139c:	ea00004c 	b	14d4 <main+0x448>
					}
					break;
				case 0x21: // C -> HF
					if (is_break) {
    13a0:	e51b104c 	ldr	r1, [r11, #-76]	; 0xffffffb4
    13a4:	e3510000 	cmp	r1, #0
						is_specific_btn_pressed[10] = 0;
    13a8:	13a03000 	movne	r3, #0
    13ac:	15c6300a 	strbne	r3, [r6, #10]
						is_break = 0;
    13b0:	150b304c 	strne	r3, [r11, #-76]	; 0xffffffb4
					} else {
						is_specific_btn_pressed[10] = 1;
    13b4:	03a03001 	moveq	r3, #1
    13b8:	05c6300a 	strbeq	r3, [r6, #10]
    13bc:	ea000044 	b	14d4 <main+0x448>
					}
					break;
				case 0x2A: // V -> HG
					if (is_break) {
    13c0:	e51b204c 	ldr	r2, [r11, #-76]	; 0xffffffb4
    13c4:	e3520000 	cmp	r2, #0
						is_specific_btn_pressed[11] = 0;
    13c8:	13a03000 	movne	r3, #0
    13cc:	15c6300b 	strbne	r3, [r6, #11]
						is_break = 0;
    13d0:	150b304c 	strne	r3, [r11, #-76]	; 0xffffffb4
					} else {
						is_specific_btn_pressed[11] = 1;
    13d4:	03a03001 	moveq	r3, #1
    13d8:	05c6300b 	strbeq	r3, [r6, #11]
    13dc:	ea00003c 	b	14d4 <main+0x448>
					}
					break;
				case 0x32: // B -> HA
					if (is_break) {
    13e0:	e51b304c 	ldr	r3, [r11, #-76]	; 0xffffffb4
    13e4:	e3530000 	cmp	r3, #0
						is_specific_btn_pressed[12] = 0;
    13e8:	13a03000 	movne	r3, #0
    13ec:	15c6300c 	strbne	r3, [r6, #12]
						is_break = 0;
    13f0:	150b304c 	strne	r3, [r11, #-76]	; 0xffffffb4
					} else {
						is_specific_btn_pressed[12] = 1;
    13f4:	03a03001 	moveq	r3, #1
    13f8:	05c6300c 	strbeq	r3, [r6, #12]
    13fc:	ea000034 	b	14d4 <main+0x448>
					}
					break;
				case 0x31: // N -> HB
					if (is_break) {
    1400:	e51b004c 	ldr	r0, [r11, #-76]	; 0xffffffb4
    1404:	e3500000 	cmp	r0, #0
						is_specific_btn_pressed[13] = 0;
    1408:	13a03000 	movne	r3, #0
    140c:	15c6300d 	strbne	r3, [r6, #13]
						is_break = 0;
    1410:	150b304c 	strne	r3, [r11, #-76]	; 0xffffffb4
					} else {
						is_specific_btn_pressed[13] = 1;
    1414:	03a03001 	moveq	r3, #1
    1418:	05c6300d 	strbeq	r3, [r6, #13]
    141c:	ea00002c 	b	14d4 <main+0x448>
					}
					break;
				case 0x3A: // M -> HHC
					if (is_break) {
    1420:	e51b104c 	ldr	r1, [r11, #-76]	; 0xffffffb4
    1424:	e3510000 	cmp	r1, #0
						is_specific_btn_pressed[14] = 0;
    1428:	13a03000 	movne	r3, #0
    142c:	15c6300e 	strbne	r3, [r6, #14]
						is_break = 0;
    1430:	150b304c 	strne	r3, [r11, #-76]	; 0xffffffb4
					} else {
						is_specific_btn_pressed[14] = 1;
    1434:	03a03001 	moveq	r3, #1
    1438:	05c6300e 	strbeq	r3, [r6, #14]
    143c:	ea000024 	b	14d4 <main+0x448>
					}
					break;
				case 0x16:
					if (is_break) {
    1440:	e51b204c 	ldr	r2, [r11, #-76]	; 0xffffffb4
    1444:	e3520000 	cmp	r2, #0
    1448:	0a000021 	beq	14d4 <main+0x448>
						ampl = (ampl - 1) % 10;
    144c:	e51b0050 	ldr	r0, [r11, #-80]	; 0xffffffb0
    1450:	e2403001 	sub	r3, r0, #1
    1454:	e51b205c 	ldr	r2, [r11, #-92]	; 0xffffffa4
    1458:	e0c12392 	smull	r2, r1, r2, r3
    145c:	e1a02fc3 	asr	r2, r3, #31
    1460:	e0622141 	rsb	r2, r2, r1, asr #2
    1464:	e0822102 	add	r2, r2, r2, lsl #2
						if (ampl < 0) ampl = ampl + 10;
    1468:	e0532082 	subs	r2, r3, r2, lsl #1
    146c:	e50b2050 	str	r2, [r11, #-80]	; 0xffffffb0
						is_break = 0;
    1470:	53a03000 	movpl	r3, #0
    1474:	550b304c 	strpl	r3, [r11, #-76]	; 0xffffffb4
					}
					break;
				case 0x16:
					if (is_break) {
						ampl = (ampl - 1) % 10;
						if (ampl < 0) ampl = ampl + 10;
    1478:	4282200a 	addmi	r2, r2, #10
    147c:	450b2050 	strmi	r2, [r11, #-80]	; 0xffffffb0
						is_break = 0;
    1480:	43a01000 	movmi	r1, #0
    1484:	450b104c 	strmi	r1, [r11, #-76]	; 0xffffffb4
    1488:	ea000011 	b	14d4 <main+0x448>
					}
					break;
				case 0x1E:
					if (is_break) {
    148c:	e51b204c 	ldr	r2, [r11, #-76]	; 0xffffffb4
    1490:	e3520000 	cmp	r2, #0
    1494:	0a00000e 	beq	14d4 <main+0x448>
						ampl = (ampl + 1) % 10;
    1498:	e51b0050 	ldr	r0, [r11, #-80]	; 0xffffffb0
    149c:	e2803001 	add	r3, r0, #1
    14a0:	e51b205c 	ldr	r2, [r11, #-92]	; 0xffffffa4
    14a4:	e0c12392 	smull	r2, r1, r2, r3
    14a8:	e1a02fc3 	asr	r2, r3, #31
    14ac:	e0622141 	rsb	r2, r2, r1, asr #2
    14b0:	e0822102 	add	r2, r2, r2, lsl #2
    14b4:	e0432082 	sub	r2, r3, r2, lsl #1
    14b8:	e50b2050 	str	r2, [r11, #-80]	; 0xffffffb0
						is_break = 0;
    14bc:	e3a01000 	mov	r1, #0
    14c0:	e50b104c 	str	r1, [r11, #-76]	; 0xffffffb4
    14c4:	ea000002 	b	14d4 <main+0x448>
					break;
				case 0xF0:
					is_break = 1;
					break;
				default:
					is_break = 0;
    14c8:	e3a02000 	mov	r2, #0
    14cc:	e50b204c 	str	r2, [r11, #-76]	; 0xffffffb4
    14d0:	eaffffff 	b	14d4 <main+0x448>
			}
		}
		// handle_note_pressed_listener(is_specific_btn_pressed, &is_break, &to_read, &ampl);

		if (hps_tim0_int_flag == 1) {
    14d4:	e51b0048 	ldr	r0, [r11, #-72]	; 0xffffffb8
    14d8:	e5903000 	ldr	r3, [r0]
    14dc:	e3530001 	cmp	r3, #1
    14e0:	1affff27 	bne	1184 <main+0xf8>

			hps_tim0_int_flag = 0;
    14e4:	e3a03000 	mov	r3, #0
    14e8:	e5803000 	str	r3, [r0]

			int i = 0, count_note = 0;
			int total = 0;
			for (i = 0; i < NUM_NOTES; i++) {
    14ec:	e1570003 	cmp	r7, r3
    14f0:	da000019 	ble	155c <main+0x4d0>
		if (hps_tim0_int_flag == 1) {

			hps_tim0_int_flag = 0;

			int i = 0, count_note = 0;
			int total = 0;
    14f4:	e1a05003 	mov	r5, r3

		if (hps_tim0_int_flag == 1) {

			hps_tim0_int_flag = 0;

			int i = 0, count_note = 0;
    14f8:	e1a0a003 	mov	r10, r3
			int total = 0;
			for (i = 0; i < NUM_NOTES; i++) {
    14fc:	e1a04003 	mov	r4, r3
				if (is_specific_btn_pressed[i]) {
					total = total + make_wave(instance, NOTE_LOOKUP[i]);
    1500:	e30299b8 	movw	r9, #10680	; 0x29b8
    1504:	e3409000 	movt	r9, #0
			hps_tim0_int_flag = 0;

			int i = 0, count_note = 0;
			int total = 0;
			for (i = 0; i < NUM_NOTES; i++) {
				if (is_specific_btn_pressed[i]) {
    1508:	e7d63004 	ldrb	r3, [r6, r4]
    150c:	e3530000 	cmp	r3, #0
    1510:	0a000004 	beq	1528 <main+0x49c>
					total = total + make_wave(instance, NOTE_LOOKUP[i]);
    1514:	e1a00008 	mov	r0, r8
    1518:	e7991104 	ldr	r1, [r9, r4, lsl #2]
    151c:	ebfffcab 	bl	7d0 <make_wave>
    1520:	e0855000 	add	r5, r5, r0
					count_note = count_note + 1;
    1524:	e28aa001 	add	r10, r10, #1

			hps_tim0_int_flag = 0;

			int i = 0, count_note = 0;
			int total = 0;
			for (i = 0; i < NUM_NOTES; i++) {
    1528:	e2844001 	add	r4, r4, #1
    152c:	e1540007 	cmp	r4, r7
    1530:	1afffff4 	bne	1508 <main+0x47c>
				if (is_specific_btn_pressed[i]) {
					total = total + make_wave(instance, NOTE_LOOKUP[i]);
					count_note = count_note + 1;
				}
			}
			if (count_note > 0) signal = (total * ampl) / (10);
    1534:	e35a0000 	cmp	r10, #0
			else signal = 0;
    1538:	d3a05000 	movle	r5, #0
				if (is_specific_btn_pressed[i]) {
					total = total + make_wave(instance, NOTE_LOOKUP[i]);
					count_note = count_note + 1;
				}
			}
			if (count_note > 0) signal = (total * ampl) / (10);
    153c:	da000009 	ble	1568 <main+0x4dc>
    1540:	e51b1050 	ldr	r1, [r11, #-80]	; 0xffffffb0
    1544:	e0050195 	mul	r5, r5, r1
    1548:	e51b205c 	ldr	r2, [r11, #-92]	; 0xffffffa4
    154c:	e0c32592 	smull	r2, r3, r2, r5
    1550:	e1a05fc5 	asr	r5, r5, #31
    1554:	e0655143 	rsb	r5, r5, r3, asr #2
    1558:	ea000002 	b	1568 <main+0x4dc>

		if (hps_tim0_int_flag == 1) {

			hps_tim0_int_flag = 0;

			int i = 0, count_note = 0;
    155c:	e3a0a000 	mov	r10, #0
					total = total + make_wave(instance, NOTE_LOOKUP[i]);
					count_note = count_note + 1;
				}
			}
			if (count_note > 0) signal = (total * ampl) / (10);
			else signal = 0;
    1560:	e1a0500a 	mov	r5, r10
    1564:	eaffffff 	b	1568 <main+0x4dc>
			instance = (instance + 1) % 48000;
    1568:	e2883001 	add	r3, r8, #1
    156c:	e51b0054 	ldr	r0, [r11, #-84]	; 0xffffffac
    1570:	e0c80390 	smull	r0, r8, r0, r3
    1574:	e1a02fc3 	asr	r2, r3, #31
    1578:	e0628548 	rsb	r8, r2, r8, asr #10
    157c:	e30b2b80 	movw	r2, #48000	; 0xbb80
    1580:	e0683892 	mls	r8, r2, r8, r3

			audio_write_data_ASM(signal << 3, signal << 3);
    1584:	e1a01185 	lsl	r1, r5, #3
    1588:	e1a00001 	mov	r0, r1
    158c:	ebfffd78 	bl	b74 <audio_write_data_ASM>

			int col = instance % (refresh);
    1590:	e51b1058 	ldr	r1, [r11, #-88]	; 0xffffffa8
    1594:	e0c91891 	smull	r1, r9, r1, r8
    1598:	e1a03fc8 	asr	r3, r8, #31
    159c:	e0639549 	rsb	r9, r3, r9, asr #10
    15a0:	e3a03d96 	mov	r3, #9600	; 0x2580
    15a4:	e0698993 	mls	r9, r3, r9, r8

			if (col >=0 && col <=319) {
    15a8:	e3590d05 	cmp	r9, #320	; 0x140
    15ac:	2a00001d 	bcs	1628 <main+0x59c>
				VGA_draw_point_ASM(col, display[col], 0x8EFF);
    15b0:	e1a00009 	mov	r0, r9
    15b4:	e51b2060 	ldr	r2, [r11, #-96]	; 0xffffffa0
    15b8:	e7921109 	ldr	r1, [r2, r9, lsl #2]
    15bc:	e3e02c71 	mvn	r2, #28928	; 0x7100
    15c0:	ebfffe9d 	bl	103c <VGA_draw_point_ASM>
				display[col] = (int)(((double)signal / (AMP * count_note)) * 80) + 140;
    15c4:	e1a00005 	mov	r0, r5
    15c8:	eb0000ed 	bl	1984 <__aeabi_i2d>
    15cc:	e1a04000 	mov	r4, r0
    15d0:	e1a05001 	mov	r5, r1
    15d4:	e51b3064 	ldr	r3, [r11, #-100]	; 0xffffff9c
    15d8:	e5930000 	ldr	r0, [r3]
    15dc:	e0000a90 	mul	r0, r0, r10
    15e0:	eb0000e7 	bl	1984 <__aeabi_i2d>
    15e4:	e1a02000 	mov	r2, r0
    15e8:	e1a03001 	mov	r3, r1
    15ec:	e1a00004 	mov	r0, r4
    15f0:	e1a01005 	mov	r1, r5
    15f4:	eb0001bd 	bl	1cf0 <__aeabi_ddiv>
    15f8:	e3a02000 	mov	r2, #0
    15fc:	e3a03000 	mov	r3, #0
    1600:	e3443054 	movt	r3, #16468	; 0x4054
    1604:	eb000115 	bl	1a60 <__aeabi_dmul>
    1608:	eb00023b 	bl	1efc <__aeabi_d2iz>
    160c:	e280108c 	add	r1, r0, #140	; 0x8c
    1610:	e51b0060 	ldr	r0, [r11, #-96]	; 0xffffffa0
    1614:	e7801109 	str	r1, [r0, r9, lsl #2]
				VGA_draw_point_ASM(col, display[col], 0xFA0B);
    1618:	e1a00009 	mov	r0, r9
    161c:	e30f2a0b 	movw	r2, #64011	; 0xfa0b
    1620:	e34f2fff 	movt	r2, #65535	; 0xffff
    1624:	ebfffe84 	bl	103c <VGA_draw_point_ASM>
			}
			if (col == refresh - 1) {
    1628:	e302357f 	movw	r3, #9599	; 0x257f
    162c:	e1590003 	cmp	r9, r3
    1630:	1afffed3 	bne	1184 <main+0xf8>
				render(ampl, is_specific_btn_pressed);
    1634:	e51b0050 	ldr	r0, [r11, #-80]	; 0xffffffb0
    1638:	e51b1068 	ldr	r1, [r11, #-104]	; 0xffffff98
    163c:	ebfffb52 	bl	38c <render>
    1640:	eafffecf 	b	1184 <main+0xf8>

00001644 <__aeabi_drsub>:
    1644:	e2211102 	eor	r1, r1, #-2147483648	; 0x80000000
    1648:	ea000000 	b	1650 <__adddf3>

0000164c <__aeabi_dsub>:
    164c:	e2233102 	eor	r3, r3, #-2147483648	; 0x80000000

00001650 <__adddf3>:
    1650:	e92d4030 	push	{r4, r5, lr}
    1654:	e1a04081 	lsl	r4, r1, #1
    1658:	e1a05083 	lsl	r5, r3, #1
    165c:	e1340005 	teq	r4, r5
    1660:	01300002 	teqeq	r0, r2
    1664:	1194c000 	orrsne	r12, r4, r0
    1668:	1195c002 	orrsne	r12, r5, r2
    166c:	11f0cac4 	mvnsne	r12, r4, asr #21
    1670:	11f0cac5 	mvnsne	r12, r5, asr #21
    1674:	0a00008c 	beq	18ac <__adddf3+0x25c>
    1678:	e1a04aa4 	lsr	r4, r4, #21
    167c:	e0745aa5 	rsbs	r5, r4, r5, lsr #21
    1680:	b2655000 	rsblt	r5, r5, #0
    1684:	da000006 	ble	16a4 <__adddf3+0x54>
    1688:	e0844005 	add	r4, r4, r5
    168c:	e0202002 	eor	r2, r0, r2
    1690:	e0213003 	eor	r3, r1, r3
    1694:	e0220000 	eor	r0, r2, r0
    1698:	e0231001 	eor	r1, r3, r1
    169c:	e0202002 	eor	r2, r0, r2
    16a0:	e0213003 	eor	r3, r1, r3
    16a4:	e3550036 	cmp	r5, #54	; 0x36
    16a8:	88bd4030 	pophi	{r4, r5, lr}
    16ac:	812fff1e 	bxhi	lr
    16b0:	e3110102 	tst	r1, #-2147483648	; 0x80000000
    16b4:	e1a01601 	lsl	r1, r1, #12
    16b8:	e3a0c601 	mov	r12, #1048576	; 0x100000
    16bc:	e18c1621 	orr	r1, r12, r1, lsr #12
    16c0:	0a000001 	beq	16cc <__adddf3+0x7c>
    16c4:	e2700000 	rsbs	r0, r0, #0
    16c8:	e2e11000 	rsc	r1, r1, #0
    16cc:	e3130102 	tst	r3, #-2147483648	; 0x80000000
    16d0:	e1a03603 	lsl	r3, r3, #12
    16d4:	e18c3623 	orr	r3, r12, r3, lsr #12
    16d8:	0a000001 	beq	16e4 <__adddf3+0x94>
    16dc:	e2722000 	rsbs	r2, r2, #0
    16e0:	e2e33000 	rsc	r3, r3, #0
    16e4:	e1340005 	teq	r4, r5
    16e8:	0a000069 	beq	1894 <__adddf3+0x244>
    16ec:	e2444001 	sub	r4, r4, #1
    16f0:	e275e020 	rsbs	lr, r5, #32
    16f4:	ba000005 	blt	1710 <__adddf3+0xc0>
    16f8:	e1a0ce12 	lsl	r12, r2, lr
    16fc:	e0900532 	adds	r0, r0, r2, lsr r5
    1700:	e2a11000 	adc	r1, r1, #0
    1704:	e0900e13 	adds	r0, r0, r3, lsl lr
    1708:	e0b11553 	adcs	r1, r1, r3, asr r5
    170c:	ea000006 	b	172c <__adddf3+0xdc>
    1710:	e2455020 	sub	r5, r5, #32
    1714:	e28ee020 	add	lr, lr, #32
    1718:	e3520001 	cmp	r2, #1
    171c:	e1a0ce13 	lsl	r12, r3, lr
    1720:	238cc002 	orrcs	r12, r12, #2
    1724:	e0900553 	adds	r0, r0, r3, asr r5
    1728:	e0b11fc3 	adcs	r1, r1, r3, asr #31
    172c:	e2015102 	and	r5, r1, #-2147483648	; 0x80000000
    1730:	5a000002 	bpl	1740 <__adddf3+0xf0>
    1734:	e27cc000 	rsbs	r12, r12, #0
    1738:	e2f00000 	rscs	r0, r0, #0
    173c:	e2e11000 	rsc	r1, r1, #0
    1740:	e3510601 	cmp	r1, #1048576	; 0x100000
    1744:	3a00000f 	bcc	1788 <__adddf3+0x138>
    1748:	e3510602 	cmp	r1, #2097152	; 0x200000
    174c:	3a000006 	bcc	176c <__adddf3+0x11c>
    1750:	e1b010a1 	lsrs	r1, r1, #1
    1754:	e1b00060 	rrxs	r0, r0
    1758:	e1a0c06c 	rrx	r12, r12
    175c:	e2844001 	add	r4, r4, #1
    1760:	e1a02a84 	lsl	r2, r4, #21
    1764:	e3720501 	cmn	r2, #4194304	; 0x400000
    1768:	2a00006b 	bcs	191c <__adddf3+0x2cc>
    176c:	e35c0102 	cmp	r12, #-2147483648	; 0x80000000
    1770:	01b0c0a0 	lsrseq	r12, r0, #1
    1774:	e2b00000 	adcs	r0, r0, #0
    1778:	e0a11a04 	adc	r1, r1, r4, lsl #20
    177c:	e1811005 	orr	r1, r1, r5
    1780:	e8bd4030 	pop	{r4, r5, lr}
    1784:	e12fff1e 	bx	lr
    1788:	e1b0c08c 	lsls	r12, r12, #1
    178c:	e0b00000 	adcs	r0, r0, r0
    1790:	e0a11001 	adc	r1, r1, r1
    1794:	e3110601 	tst	r1, #1048576	; 0x100000
    1798:	e2444001 	sub	r4, r4, #1
    179c:	1afffff2 	bne	176c <__adddf3+0x11c>
    17a0:	e3310000 	teq	r1, #0
    17a4:	13a03014 	movne	r3, #20
    17a8:	03a03034 	moveq	r3, #52	; 0x34
    17ac:	01a01000 	moveq	r1, r0
    17b0:	03a00000 	moveq	r0, #0
    17b4:	e1a02001 	mov	r2, r1
    17b8:	e3520801 	cmp	r2, #65536	; 0x10000
    17bc:	21a02822 	lsrcs	r2, r2, #16
    17c0:	22433010 	subcs	r3, r3, #16
    17c4:	e3520c01 	cmp	r2, #256	; 0x100
    17c8:	21a02422 	lsrcs	r2, r2, #8
    17cc:	22433008 	subcs	r3, r3, #8
    17d0:	e3520010 	cmp	r2, #16
    17d4:	21a02222 	lsrcs	r2, r2, #4
    17d8:	22433004 	subcs	r3, r3, #4
    17dc:	e3520004 	cmp	r2, #4
    17e0:	22433002 	subcs	r3, r3, #2
    17e4:	304330a2 	subcc	r3, r3, r2, lsr #1
    17e8:	e04331a2 	sub	r3, r3, r2, lsr #3
    17ec:	e2532020 	subs	r2, r3, #32
    17f0:	aa000007 	bge	1814 <__adddf3+0x1c4>
    17f4:	e292200c 	adds	r2, r2, #12
    17f8:	da000004 	ble	1810 <__adddf3+0x1c0>
    17fc:	e282c014 	add	r12, r2, #20
    1800:	e262200c 	rsb	r2, r2, #12
    1804:	e1a00c11 	lsl	r0, r1, r12
    1808:	e1a01231 	lsr	r1, r1, r2
    180c:	ea000004 	b	1824 <__adddf3+0x1d4>
    1810:	e2822014 	add	r2, r2, #20
    1814:	d262c020 	rsble	r12, r2, #32
    1818:	e1a01211 	lsl	r1, r1, r2
    181c:	d1811c30 	orrle	r1, r1, r0, lsr r12
    1820:	d1a00210 	lslle	r0, r0, r2
    1824:	e0544003 	subs	r4, r4, r3
    1828:	a0811a04 	addge	r1, r1, r4, lsl #20
    182c:	a1811005 	orrge	r1, r1, r5
    1830:	a8bd4030 	popge	{r4, r5, lr}
    1834:	a12fff1e 	bxge	lr
    1838:	e1e04004 	mvn	r4, r4
    183c:	e254401f 	subs	r4, r4, #31
    1840:	aa00000f 	bge	1884 <__adddf3+0x234>
    1844:	e294400c 	adds	r4, r4, #12
    1848:	ca000006 	bgt	1868 <__adddf3+0x218>
    184c:	e2844014 	add	r4, r4, #20
    1850:	e2642020 	rsb	r2, r4, #32
    1854:	e1a00430 	lsr	r0, r0, r4
    1858:	e1800211 	orr	r0, r0, r1, lsl r2
    185c:	e1851431 	orr	r1, r5, r1, lsr r4
    1860:	e8bd4030 	pop	{r4, r5, lr}
    1864:	e12fff1e 	bx	lr
    1868:	e264400c 	rsb	r4, r4, #12
    186c:	e2642020 	rsb	r2, r4, #32
    1870:	e1a00230 	lsr	r0, r0, r2
    1874:	e1800411 	orr	r0, r0, r1, lsl r4
    1878:	e1a01005 	mov	r1, r5
    187c:	e8bd4030 	pop	{r4, r5, lr}
    1880:	e12fff1e 	bx	lr
    1884:	e1a00431 	lsr	r0, r1, r4
    1888:	e1a01005 	mov	r1, r5
    188c:	e8bd4030 	pop	{r4, r5, lr}
    1890:	e12fff1e 	bx	lr
    1894:	e3340000 	teq	r4, #0
    1898:	e2233601 	eor	r3, r3, #1048576	; 0x100000
    189c:	02211601 	eoreq	r1, r1, #1048576	; 0x100000
    18a0:	02844001 	addeq	r4, r4, #1
    18a4:	12455001 	subne	r5, r5, #1
    18a8:	eaffff8f 	b	16ec <__adddf3+0x9c>
    18ac:	e1f0cac4 	mvns	r12, r4, asr #21
    18b0:	11f0cac5 	mvnsne	r12, r5, asr #21
    18b4:	0a00001d 	beq	1930 <__adddf3+0x2e0>
    18b8:	e1340005 	teq	r4, r5
    18bc:	01300002 	teqeq	r0, r2
    18c0:	0a000004 	beq	18d8 <__adddf3+0x288>
    18c4:	e194c000 	orrs	r12, r4, r0
    18c8:	01a01003 	moveq	r1, r3
    18cc:	01a00002 	moveq	r0, r2
    18d0:	e8bd4030 	pop	{r4, r5, lr}
    18d4:	e12fff1e 	bx	lr
    18d8:	e1310003 	teq	r1, r3
    18dc:	13a01000 	movne	r1, #0
    18e0:	13a00000 	movne	r0, #0
    18e4:	18bd4030 	popne	{r4, r5, lr}
    18e8:	112fff1e 	bxne	lr
    18ec:	e1b0caa4 	lsrs	r12, r4, #21
    18f0:	1a000004 	bne	1908 <__adddf3+0x2b8>
    18f4:	e1b00080 	lsls	r0, r0, #1
    18f8:	e0b11001 	adcs	r1, r1, r1
    18fc:	23811102 	orrcs	r1, r1, #-2147483648	; 0x80000000
    1900:	e8bd4030 	pop	{r4, r5, lr}
    1904:	e12fff1e 	bx	lr
    1908:	e2944501 	adds	r4, r4, #4194304	; 0x400000
    190c:	32811601 	addcc	r1, r1, #1048576	; 0x100000
    1910:	38bd4030 	popcc	{r4, r5, lr}
    1914:	312fff1e 	bxcc	lr
    1918:	e2015102 	and	r5, r1, #-2147483648	; 0x80000000
    191c:	e385147f 	orr	r1, r5, #2130706432	; 0x7f000000
    1920:	e381160f 	orr	r1, r1, #15728640	; 0xf00000
    1924:	e3a00000 	mov	r0, #0
    1928:	e8bd4030 	pop	{r4, r5, lr}
    192c:	e12fff1e 	bx	lr
    1930:	e1f0cac4 	mvns	r12, r4, asr #21
    1934:	11a01003 	movne	r1, r3
    1938:	11a00002 	movne	r0, r2
    193c:	01f0cac5 	mvnseq	r12, r5, asr #21
    1940:	11a03001 	movne	r3, r1
    1944:	11a02000 	movne	r2, r0
    1948:	e1904601 	orrs	r4, r0, r1, lsl #12
    194c:	01925603 	orrseq	r5, r2, r3, lsl #12
    1950:	01310003 	teqeq	r1, r3
    1954:	13811702 	orrne	r1, r1, #524288	; 0x80000
    1958:	e8bd4030 	pop	{r4, r5, lr}
    195c:	e12fff1e 	bx	lr

00001960 <__aeabi_ui2d>:
    1960:	e3300000 	teq	r0, #0
    1964:	03a01000 	moveq	r1, #0
    1968:	012fff1e 	bxeq	lr
    196c:	e92d4030 	push	{r4, r5, lr}
    1970:	e3a04b01 	mov	r4, #1024	; 0x400
    1974:	e2844032 	add	r4, r4, #50	; 0x32
    1978:	e3a05000 	mov	r5, #0
    197c:	e3a01000 	mov	r1, #0
    1980:	eaffff86 	b	17a0 <__adddf3+0x150>

00001984 <__aeabi_i2d>:
    1984:	e3300000 	teq	r0, #0
    1988:	03a01000 	moveq	r1, #0
    198c:	012fff1e 	bxeq	lr
    1990:	e92d4030 	push	{r4, r5, lr}
    1994:	e3a04b01 	mov	r4, #1024	; 0x400
    1998:	e2844032 	add	r4, r4, #50	; 0x32
    199c:	e2105102 	ands	r5, r0, #-2147483648	; 0x80000000
    19a0:	42600000 	rsbmi	r0, r0, #0
    19a4:	e3a01000 	mov	r1, #0
    19a8:	eaffff7c 	b	17a0 <__adddf3+0x150>

000019ac <__aeabi_f2d>:
    19ac:	e1b02080 	lsls	r2, r0, #1
    19b0:	e1a011c2 	asr	r1, r2, #3
    19b4:	e1a01061 	rrx	r1, r1
    19b8:	e1a00e02 	lsl	r0, r2, #28
    19bc:	121234ff 	andsne	r3, r2, #-16777216	; 0xff000000
    19c0:	133304ff 	teqne	r3, #-16777216	; 0xff000000
    19c4:	1221130e 	eorne	r1, r1, #939524096	; 0x38000000
    19c8:	112fff1e 	bxne	lr
    19cc:	e3320000 	teq	r2, #0
    19d0:	133304ff 	teqne	r3, #-16777216	; 0xff000000
    19d4:	012fff1e 	bxeq	lr
    19d8:	e92d4030 	push	{r4, r5, lr}
    19dc:	e3a04d0e 	mov	r4, #896	; 0x380
    19e0:	e2015102 	and	r5, r1, #-2147483648	; 0x80000000
    19e4:	e3c11102 	bic	r1, r1, #-2147483648	; 0x80000000
    19e8:	eaffff6c 	b	17a0 <__adddf3+0x150>

000019ec <__aeabi_ul2d>:
    19ec:	e1902001 	orrs	r2, r0, r1
    19f0:	012fff1e 	bxeq	lr
    19f4:	e92d4030 	push	{r4, r5, lr}
    19f8:	e3a05000 	mov	r5, #0
    19fc:	ea000006 	b	1a1c <__aeabi_l2d+0x1c>

00001a00 <__aeabi_l2d>:
    1a00:	e1902001 	orrs	r2, r0, r1
    1a04:	012fff1e 	bxeq	lr
    1a08:	e92d4030 	push	{r4, r5, lr}
    1a0c:	e2115102 	ands	r5, r1, #-2147483648	; 0x80000000
    1a10:	5a000001 	bpl	1a1c <__aeabi_l2d+0x1c>
    1a14:	e2700000 	rsbs	r0, r0, #0
    1a18:	e2e11000 	rsc	r1, r1, #0
    1a1c:	e3a04b01 	mov	r4, #1024	; 0x400
    1a20:	e2844032 	add	r4, r4, #50	; 0x32
    1a24:	e1b0cb21 	lsrs	r12, r1, #22
    1a28:	0affff44 	beq	1740 <__adddf3+0xf0>
    1a2c:	e3a02003 	mov	r2, #3
    1a30:	e1b0c1ac 	lsrs	r12, r12, #3
    1a34:	12822003 	addne	r2, r2, #3
    1a38:	e1b0c1ac 	lsrs	r12, r12, #3
    1a3c:	12822003 	addne	r2, r2, #3
    1a40:	e08221ac 	add	r2, r2, r12, lsr #3
    1a44:	e2623020 	rsb	r3, r2, #32
    1a48:	e1a0c310 	lsl	r12, r0, r3
    1a4c:	e1a00230 	lsr	r0, r0, r2
    1a50:	e1800311 	orr	r0, r0, r1, lsl r3
    1a54:	e1a01231 	lsr	r1, r1, r2
    1a58:	e0844002 	add	r4, r4, r2
    1a5c:	eaffff37 	b	1740 <__adddf3+0xf0>

00001a60 <__aeabi_dmul>:
    1a60:	e92d4070 	push	{r4, r5, r6, lr}
    1a64:	e3a0c0ff 	mov	r12, #255	; 0xff
    1a68:	e38ccc07 	orr	r12, r12, #1792	; 0x700
    1a6c:	e01c4a21 	ands	r4, r12, r1, lsr #20
    1a70:	101c5a23 	andsne	r5, r12, r3, lsr #20
    1a74:	1134000c 	teqne	r4, r12
    1a78:	1135000c 	teqne	r5, r12
    1a7c:	0b000075 	bleq	1c58 <__aeabi_dmul+0x1f8>
    1a80:	e0844005 	add	r4, r4, r5
    1a84:	e0216003 	eor	r6, r1, r3
    1a88:	e1c11a8c 	bic	r1, r1, r12, lsl #21
    1a8c:	e1c33a8c 	bic	r3, r3, r12, lsl #21
    1a90:	e1905601 	orrs	r5, r0, r1, lsl #12
    1a94:	11925603 	orrsne	r5, r2, r3, lsl #12
    1a98:	e3811601 	orr	r1, r1, #1048576	; 0x100000
    1a9c:	e3833601 	orr	r3, r3, #1048576	; 0x100000
    1aa0:	0a00001d 	beq	1b1c <__aeabi_dmul+0xbc>
    1aa4:	e08ec290 	umull	r12, lr, r0, r2
    1aa8:	e3a05000 	mov	r5, #0
    1aac:	e0a5e291 	umlal	lr, r5, r1, r2
    1ab0:	e2062102 	and	r2, r6, #-2147483648	; 0x80000000
    1ab4:	e0a5e390 	umlal	lr, r5, r0, r3
    1ab8:	e3a06000 	mov	r6, #0
    1abc:	e0a65391 	umlal	r5, r6, r1, r3
    1ac0:	e33c0000 	teq	r12, #0
    1ac4:	138ee001 	orrne	lr, lr, #1
    1ac8:	e24440ff 	sub	r4, r4, #255	; 0xff
    1acc:	e3560c02 	cmp	r6, #512	; 0x200
    1ad0:	e2c44c03 	sbc	r4, r4, #768	; 0x300
    1ad4:	2a000002 	bcs	1ae4 <__aeabi_dmul+0x84>
    1ad8:	e1b0e08e 	lsls	lr, lr, #1
    1adc:	e0b55005 	adcs	r5, r5, r5
    1ae0:	e0a66006 	adc	r6, r6, r6
    1ae4:	e1821586 	orr	r1, r2, r6, lsl #11
    1ae8:	e1811aa5 	orr	r1, r1, r5, lsr #21
    1aec:	e1a00585 	lsl	r0, r5, #11
    1af0:	e1800aae 	orr	r0, r0, lr, lsr #21
    1af4:	e1a0e58e 	lsl	lr, lr, #11
    1af8:	e254c0fd 	subs	r12, r4, #253	; 0xfd
    1afc:	835c0c07 	cmphi	r12, #1792	; 0x700
    1b00:	8a000011 	bhi	1b4c <__aeabi_dmul+0xec>
    1b04:	e35e0102 	cmp	lr, #-2147483648	; 0x80000000
    1b08:	01b0e0a0 	lsrseq	lr, r0, #1
    1b0c:	e2b00000 	adcs	r0, r0, #0
    1b10:	e0a11a04 	adc	r1, r1, r4, lsl #20
    1b14:	e8bd4070 	pop	{r4, r5, r6, lr}
    1b18:	e12fff1e 	bx	lr
    1b1c:	e2066102 	and	r6, r6, #-2147483648	; 0x80000000
    1b20:	e1861001 	orr	r1, r6, r1
    1b24:	e1800002 	orr	r0, r0, r2
    1b28:	e0211003 	eor	r1, r1, r3
    1b2c:	e05440ac 	subs	r4, r4, r12, lsr #1
    1b30:	c074500c 	rsbsgt	r5, r4, r12
    1b34:	c1811a04 	orrgt	r1, r1, r4, lsl #20
    1b38:	c8bd4070 	popgt	{r4, r5, r6, lr}
    1b3c:	c12fff1e 	bxgt	lr
    1b40:	e3811601 	orr	r1, r1, #1048576	; 0x100000
    1b44:	e3a0e000 	mov	lr, #0
    1b48:	e2544001 	subs	r4, r4, #1
    1b4c:	ca00005d 	bgt	1cc8 <__aeabi_dmul+0x268>
    1b50:	e3740036 	cmn	r4, #54	; 0x36
    1b54:	d3a00000 	movle	r0, #0
    1b58:	d2011102 	andle	r1, r1, #-2147483648	; 0x80000000
    1b5c:	d8bd4070 	pople	{r4, r5, r6, lr}
    1b60:	d12fff1e 	bxle	lr
    1b64:	e2644000 	rsb	r4, r4, #0
    1b68:	e2544020 	subs	r4, r4, #32
    1b6c:	aa00001a 	bge	1bdc <__aeabi_dmul+0x17c>
    1b70:	e294400c 	adds	r4, r4, #12
    1b74:	ca00000c 	bgt	1bac <__aeabi_dmul+0x14c>
    1b78:	e2844014 	add	r4, r4, #20
    1b7c:	e2645020 	rsb	r5, r4, #32
    1b80:	e1a03510 	lsl	r3, r0, r5
    1b84:	e1a00430 	lsr	r0, r0, r4
    1b88:	e1800511 	orr	r0, r0, r1, lsl r5
    1b8c:	e2012102 	and	r2, r1, #-2147483648	; 0x80000000
    1b90:	e3c11102 	bic	r1, r1, #-2147483648	; 0x80000000
    1b94:	e0900fa3 	adds	r0, r0, r3, lsr #31
    1b98:	e0a21431 	adc	r1, r2, r1, lsr r4
    1b9c:	e19ee083 	orrs	lr, lr, r3, lsl #1
    1ba0:	01c00fa3 	biceq	r0, r0, r3, lsr #31
    1ba4:	e8bd4070 	pop	{r4, r5, r6, lr}
    1ba8:	e12fff1e 	bx	lr
    1bac:	e264400c 	rsb	r4, r4, #12
    1bb0:	e2645020 	rsb	r5, r4, #32
    1bb4:	e1a03410 	lsl	r3, r0, r4
    1bb8:	e1a00530 	lsr	r0, r0, r5
    1bbc:	e1800411 	orr	r0, r0, r1, lsl r4
    1bc0:	e2011102 	and	r1, r1, #-2147483648	; 0x80000000
    1bc4:	e0900fa3 	adds	r0, r0, r3, lsr #31
    1bc8:	e2a11000 	adc	r1, r1, #0
    1bcc:	e19ee083 	orrs	lr, lr, r3, lsl #1
    1bd0:	01c00fa3 	biceq	r0, r0, r3, lsr #31
    1bd4:	e8bd4070 	pop	{r4, r5, r6, lr}
    1bd8:	e12fff1e 	bx	lr
    1bdc:	e2645020 	rsb	r5, r4, #32
    1be0:	e18ee510 	orr	lr, lr, r0, lsl r5
    1be4:	e1a03430 	lsr	r3, r0, r4
    1be8:	e1833511 	orr	r3, r3, r1, lsl r5
    1bec:	e1a00431 	lsr	r0, r1, r4
    1bf0:	e2011102 	and	r1, r1, #-2147483648	; 0x80000000
    1bf4:	e1c00431 	bic	r0, r0, r1, lsr r4
    1bf8:	e0800fa3 	add	r0, r0, r3, lsr #31
    1bfc:	e19ee083 	orrs	lr, lr, r3, lsl #1
    1c00:	01c00fa3 	biceq	r0, r0, r3, lsr #31
    1c04:	e8bd4070 	pop	{r4, r5, r6, lr}
    1c08:	e12fff1e 	bx	lr
    1c0c:	e3340000 	teq	r4, #0
    1c10:	1a000008 	bne	1c38 <__aeabi_dmul+0x1d8>
    1c14:	e2016102 	and	r6, r1, #-2147483648	; 0x80000000
    1c18:	e1b00080 	lsls	r0, r0, #1
    1c1c:	e0a11001 	adc	r1, r1, r1
    1c20:	e3110601 	tst	r1, #1048576	; 0x100000
    1c24:	02444001 	subeq	r4, r4, #1
    1c28:	0afffffa 	beq	1c18 <__aeabi_dmul+0x1b8>
    1c2c:	e1811006 	orr	r1, r1, r6
    1c30:	e3350000 	teq	r5, #0
    1c34:	112fff1e 	bxne	lr
    1c38:	e2036102 	and	r6, r3, #-2147483648	; 0x80000000
    1c3c:	e1b02082 	lsls	r2, r2, #1
    1c40:	e0a33003 	adc	r3, r3, r3
    1c44:	e3130601 	tst	r3, #1048576	; 0x100000
    1c48:	02455001 	subeq	r5, r5, #1
    1c4c:	0afffffa 	beq	1c3c <__aeabi_dmul+0x1dc>
    1c50:	e1833006 	orr	r3, r3, r6
    1c54:	e12fff1e 	bx	lr
    1c58:	e134000c 	teq	r4, r12
    1c5c:	e00c5a23 	and	r5, r12, r3, lsr #20
    1c60:	1135000c 	teqne	r5, r12
    1c64:	0a000007 	beq	1c88 <__aeabi_dmul+0x228>
    1c68:	e1906081 	orrs	r6, r0, r1, lsl #1
    1c6c:	11926083 	orrsne	r6, r2, r3, lsl #1
    1c70:	1affffe5 	bne	1c0c <__aeabi_dmul+0x1ac>
    1c74:	e0211003 	eor	r1, r1, r3
    1c78:	e2011102 	and	r1, r1, #-2147483648	; 0x80000000
    1c7c:	e3a00000 	mov	r0, #0
    1c80:	e8bd4070 	pop	{r4, r5, r6, lr}
    1c84:	e12fff1e 	bx	lr
    1c88:	e1906081 	orrs	r6, r0, r1, lsl #1
    1c8c:	01a00002 	moveq	r0, r2
    1c90:	01a01003 	moveq	r1, r3
    1c94:	11926083 	orrsne	r6, r2, r3, lsl #1
    1c98:	0a000010 	beq	1ce0 <__aeabi_dmul+0x280>
    1c9c:	e134000c 	teq	r4, r12
    1ca0:	1a000001 	bne	1cac <__aeabi_dmul+0x24c>
    1ca4:	e1906601 	orrs	r6, r0, r1, lsl #12
    1ca8:	1a00000c 	bne	1ce0 <__aeabi_dmul+0x280>
    1cac:	e135000c 	teq	r5, r12
    1cb0:	1a000003 	bne	1cc4 <__aeabi_dmul+0x264>
    1cb4:	e1926603 	orrs	r6, r2, r3, lsl #12
    1cb8:	11a00002 	movne	r0, r2
    1cbc:	11a01003 	movne	r1, r3
    1cc0:	1a000006 	bne	1ce0 <__aeabi_dmul+0x280>
    1cc4:	e0211003 	eor	r1, r1, r3
    1cc8:	e2011102 	and	r1, r1, #-2147483648	; 0x80000000
    1ccc:	e381147f 	orr	r1, r1, #2130706432	; 0x7f000000
    1cd0:	e381160f 	orr	r1, r1, #15728640	; 0xf00000
    1cd4:	e3a00000 	mov	r0, #0
    1cd8:	e8bd4070 	pop	{r4, r5, r6, lr}
    1cdc:	e12fff1e 	bx	lr
    1ce0:	e381147f 	orr	r1, r1, #2130706432	; 0x7f000000
    1ce4:	e381173e 	orr	r1, r1, #16252928	; 0xf80000
    1ce8:	e8bd4070 	pop	{r4, r5, r6, lr}
    1cec:	e12fff1e 	bx	lr

00001cf0 <__aeabi_ddiv>:
    1cf0:	e92d4070 	push	{r4, r5, r6, lr}
    1cf4:	e3a0c0ff 	mov	r12, #255	; 0xff
    1cf8:	e38ccc07 	orr	r12, r12, #1792	; 0x700
    1cfc:	e01c4a21 	ands	r4, r12, r1, lsr #20
    1d00:	101c5a23 	andsne	r5, r12, r3, lsr #20
    1d04:	1134000c 	teqne	r4, r12
    1d08:	1135000c 	teqne	r5, r12
    1d0c:	0b00005e 	bleq	1e8c <__aeabi_ddiv+0x19c>
    1d10:	e0444005 	sub	r4, r4, r5
    1d14:	e021e003 	eor	lr, r1, r3
    1d18:	e1925603 	orrs	r5, r2, r3, lsl #12
    1d1c:	e1a01601 	lsl	r1, r1, #12
    1d20:	0a00004c 	beq	1e58 <__aeabi_ddiv+0x168>
    1d24:	e1a03603 	lsl	r3, r3, #12
    1d28:	e3a05201 	mov	r5, #268435456	; 0x10000000
    1d2c:	e1853223 	orr	r3, r5, r3, lsr #4
    1d30:	e1833c22 	orr	r3, r3, r2, lsr #24
    1d34:	e1a02402 	lsl	r2, r2, #8
    1d38:	e1855221 	orr	r5, r5, r1, lsr #4
    1d3c:	e1855c20 	orr	r5, r5, r0, lsr #24
    1d40:	e1a06400 	lsl	r6, r0, #8
    1d44:	e20e1102 	and	r1, lr, #-2147483648	; 0x80000000
    1d48:	e1550003 	cmp	r5, r3
    1d4c:	01560002 	cmpeq	r6, r2
    1d50:	e2a440fd 	adc	r4, r4, #253	; 0xfd
    1d54:	e2844c03 	add	r4, r4, #768	; 0x300
    1d58:	2a000001 	bcs	1d64 <__aeabi_ddiv+0x74>
    1d5c:	e1b030a3 	lsrs	r3, r3, #1
    1d60:	e1a02062 	rrx	r2, r2
    1d64:	e0566002 	subs	r6, r6, r2
    1d68:	e0c55003 	sbc	r5, r5, r3
    1d6c:	e1b030a3 	lsrs	r3, r3, #1
    1d70:	e1a02062 	rrx	r2, r2
    1d74:	e3a00601 	mov	r0, #1048576	; 0x100000
    1d78:	e3a0c702 	mov	r12, #524288	; 0x80000
    1d7c:	e056e002 	subs	lr, r6, r2
    1d80:	e0d5e003 	sbcs	lr, r5, r3
    1d84:	20466002 	subcs	r6, r6, r2
    1d88:	21a0500e 	movcs	r5, lr
    1d8c:	2180000c 	orrcs	r0, r0, r12
    1d90:	e1b030a3 	lsrs	r3, r3, #1
    1d94:	e1a02062 	rrx	r2, r2
    1d98:	e056e002 	subs	lr, r6, r2
    1d9c:	e0d5e003 	sbcs	lr, r5, r3
    1da0:	20466002 	subcs	r6, r6, r2
    1da4:	21a0500e 	movcs	r5, lr
    1da8:	218000ac 	orrcs	r0, r0, r12, lsr #1
    1dac:	e1b030a3 	lsrs	r3, r3, #1
    1db0:	e1a02062 	rrx	r2, r2
    1db4:	e056e002 	subs	lr, r6, r2
    1db8:	e0d5e003 	sbcs	lr, r5, r3
    1dbc:	20466002 	subcs	r6, r6, r2
    1dc0:	21a0500e 	movcs	r5, lr
    1dc4:	2180012c 	orrcs	r0, r0, r12, lsr #2
    1dc8:	e1b030a3 	lsrs	r3, r3, #1
    1dcc:	e1a02062 	rrx	r2, r2
    1dd0:	e056e002 	subs	lr, r6, r2
    1dd4:	e0d5e003 	sbcs	lr, r5, r3
    1dd8:	20466002 	subcs	r6, r6, r2
    1ddc:	21a0500e 	movcs	r5, lr
    1de0:	218001ac 	orrcs	r0, r0, r12, lsr #3
    1de4:	e195e006 	orrs	lr, r5, r6
    1de8:	0a00000d 	beq	1e24 <__aeabi_ddiv+0x134>
    1dec:	e1a05205 	lsl	r5, r5, #4
    1df0:	e1855e26 	orr	r5, r5, r6, lsr #28
    1df4:	e1a06206 	lsl	r6, r6, #4
    1df8:	e1a03183 	lsl	r3, r3, #3
    1dfc:	e1833ea2 	orr	r3, r3, r2, lsr #29
    1e00:	e1a02182 	lsl	r2, r2, #3
    1e04:	e1b0c22c 	lsrs	r12, r12, #4
    1e08:	1affffdb 	bne	1d7c <__aeabi_ddiv+0x8c>
    1e0c:	e3110601 	tst	r1, #1048576	; 0x100000
    1e10:	1a000006 	bne	1e30 <__aeabi_ddiv+0x140>
    1e14:	e1811000 	orr	r1, r1, r0
    1e18:	e3a00000 	mov	r0, #0
    1e1c:	e3a0c102 	mov	r12, #-2147483648	; 0x80000000
    1e20:	eaffffd5 	b	1d7c <__aeabi_ddiv+0x8c>
    1e24:	e3110601 	tst	r1, #1048576	; 0x100000
    1e28:	01811000 	orreq	r1, r1, r0
    1e2c:	03a00000 	moveq	r0, #0
    1e30:	e254c0fd 	subs	r12, r4, #253	; 0xfd
    1e34:	835c0c07 	cmphi	r12, #1792	; 0x700
    1e38:	8affff43 	bhi	1b4c <__aeabi_dmul+0xec>
    1e3c:	e055c003 	subs	r12, r5, r3
    1e40:	0056c002 	subseq	r12, r6, r2
    1e44:	01b0c0a0 	lsrseq	r12, r0, #1
    1e48:	e2b00000 	adcs	r0, r0, #0
    1e4c:	e0a11a04 	adc	r1, r1, r4, lsl #20
    1e50:	e8bd4070 	pop	{r4, r5, r6, lr}
    1e54:	e12fff1e 	bx	lr
    1e58:	e20ee102 	and	lr, lr, #-2147483648	; 0x80000000
    1e5c:	e18e1621 	orr	r1, lr, r1, lsr #12
    1e60:	e09440ac 	adds	r4, r4, r12, lsr #1
    1e64:	c074500c 	rsbsgt	r5, r4, r12
    1e68:	c1811a04 	orrgt	r1, r1, r4, lsl #20
    1e6c:	c8bd4070 	popgt	{r4, r5, r6, lr}
    1e70:	c12fff1e 	bxgt	lr
    1e74:	e3811601 	orr	r1, r1, #1048576	; 0x100000
    1e78:	e3a0e000 	mov	lr, #0
    1e7c:	e2544001 	subs	r4, r4, #1
    1e80:	eaffff31 	b	1b4c <__aeabi_dmul+0xec>
    1e84:	e185e006 	orr	lr, r5, r6
    1e88:	eaffff2f 	b	1b4c <__aeabi_dmul+0xec>
    1e8c:	e00c5a23 	and	r5, r12, r3, lsr #20
    1e90:	e134000c 	teq	r4, r12
    1e94:	0135000c 	teqeq	r5, r12
    1e98:	0affff90 	beq	1ce0 <__aeabi_dmul+0x280>
    1e9c:	e134000c 	teq	r4, r12
    1ea0:	1a000006 	bne	1ec0 <__aeabi_ddiv+0x1d0>
    1ea4:	e1904601 	orrs	r4, r0, r1, lsl #12
    1ea8:	1affff8c 	bne	1ce0 <__aeabi_dmul+0x280>
    1eac:	e135000c 	teq	r5, r12
    1eb0:	1affff83 	bne	1cc4 <__aeabi_dmul+0x264>
    1eb4:	e1a00002 	mov	r0, r2
    1eb8:	e1a01003 	mov	r1, r3
    1ebc:	eaffff87 	b	1ce0 <__aeabi_dmul+0x280>
    1ec0:	e135000c 	teq	r5, r12
    1ec4:	1a000004 	bne	1edc <__aeabi_ddiv+0x1ec>
    1ec8:	e1925603 	orrs	r5, r2, r3, lsl #12
    1ecc:	0affff68 	beq	1c74 <__aeabi_dmul+0x214>
    1ed0:	e1a00002 	mov	r0, r2
    1ed4:	e1a01003 	mov	r1, r3
    1ed8:	eaffff80 	b	1ce0 <__aeabi_dmul+0x280>
    1edc:	e1906081 	orrs	r6, r0, r1, lsl #1
    1ee0:	11926083 	orrsne	r6, r2, r3, lsl #1
    1ee4:	1affff48 	bne	1c0c <__aeabi_dmul+0x1ac>
    1ee8:	e1904081 	orrs	r4, r0, r1, lsl #1
    1eec:	1affff74 	bne	1cc4 <__aeabi_dmul+0x264>
    1ef0:	e1925083 	orrs	r5, r2, r3, lsl #1
    1ef4:	1affff5e 	bne	1c74 <__aeabi_dmul+0x214>
    1ef8:	eaffff78 	b	1ce0 <__aeabi_dmul+0x280>

00001efc <__aeabi_d2iz>:
    1efc:	e1a02081 	lsl	r2, r1, #1
    1f00:	e2922602 	adds	r2, r2, #2097152	; 0x200000
    1f04:	2a00000c 	bcs	1f3c <__aeabi_d2iz+0x40>
    1f08:	5a000009 	bpl	1f34 <__aeabi_d2iz+0x38>
    1f0c:	e3e03e3e 	mvn	r3, #992	; 0x3e0
    1f10:	e0532ac2 	subs	r2, r3, r2, asr #21
    1f14:	9a00000a 	bls	1f44 <__aeabi_d2iz+0x48>
    1f18:	e1a03581 	lsl	r3, r1, #11
    1f1c:	e3833102 	orr	r3, r3, #-2147483648	; 0x80000000
    1f20:	e1833aa0 	orr	r3, r3, r0, lsr #21
    1f24:	e3110102 	tst	r1, #-2147483648	; 0x80000000
    1f28:	e1a00233 	lsr	r0, r3, r2
    1f2c:	12600000 	rsbne	r0, r0, #0
    1f30:	e12fff1e 	bx	lr
    1f34:	e3a00000 	mov	r0, #0
    1f38:	e12fff1e 	bx	lr
    1f3c:	e1900601 	orrs	r0, r0, r1, lsl #12
    1f40:	1a000002 	bne	1f50 <__aeabi_d2iz+0x54>
    1f44:	e2110102 	ands	r0, r1, #-2147483648	; 0x80000000
    1f48:	03e00102 	mvneq	r0, #-2147483648	; 0x80000000
    1f4c:	e12fff1e 	bx	lr
    1f50:	e3a00000 	mov	r0, #0
    1f54:	e12fff1e 	bx	lr

00001f58 <__aeabi_frsub>:
    1f58:	e2200102 	eor	r0, r0, #-2147483648	; 0x80000000
    1f5c:	ea000000 	b	1f64 <__addsf3>

00001f60 <__aeabi_fsub>:
    1f60:	e2211102 	eor	r1, r1, #-2147483648	; 0x80000000

00001f64 <__addsf3>:
    1f64:	e1b02080 	lsls	r2, r0, #1
    1f68:	11b03081 	lslsne	r3, r1, #1
    1f6c:	11320003 	teqne	r2, r3
    1f70:	11f0cc42 	mvnsne	r12, r2, asr #24
    1f74:	11f0cc43 	mvnsne	r12, r3, asr #24
    1f78:	0a000047 	beq	209c <__addsf3+0x138>
    1f7c:	e1a02c22 	lsr	r2, r2, #24
    1f80:	e0723c23 	rsbs	r3, r2, r3, lsr #24
    1f84:	c0822003 	addgt	r2, r2, r3
    1f88:	c0201001 	eorgt	r1, r0, r1
    1f8c:	c0210000 	eorgt	r0, r1, r0
    1f90:	c0201001 	eorgt	r1, r0, r1
    1f94:	b2633000 	rsblt	r3, r3, #0
    1f98:	e3530019 	cmp	r3, #25
    1f9c:	812fff1e 	bxhi	lr
    1fa0:	e3100102 	tst	r0, #-2147483648	; 0x80000000
    1fa4:	e3800502 	orr	r0, r0, #8388608	; 0x800000
    1fa8:	e3c004ff 	bic	r0, r0, #-16777216	; 0xff000000
    1fac:	12600000 	rsbne	r0, r0, #0
    1fb0:	e3110102 	tst	r1, #-2147483648	; 0x80000000
    1fb4:	e3811502 	orr	r1, r1, #8388608	; 0x800000
    1fb8:	e3c114ff 	bic	r1, r1, #-16777216	; 0xff000000
    1fbc:	12611000 	rsbne	r1, r1, #0
    1fc0:	e1320003 	teq	r2, r3
    1fc4:	0a00002e 	beq	2084 <__addsf3+0x120>
    1fc8:	e2422001 	sub	r2, r2, #1
    1fcc:	e0900351 	adds	r0, r0, r1, asr r3
    1fd0:	e2633020 	rsb	r3, r3, #32
    1fd4:	e1a01311 	lsl	r1, r1, r3
    1fd8:	e2003102 	and	r3, r0, #-2147483648	; 0x80000000
    1fdc:	5a000001 	bpl	1fe8 <__addsf3+0x84>
    1fe0:	e2711000 	rsbs	r1, r1, #0
    1fe4:	e2e00000 	rsc	r0, r0, #0
    1fe8:	e3500502 	cmp	r0, #8388608	; 0x800000
    1fec:	3a00000b 	bcc	2020 <__addsf3+0xbc>
    1ff0:	e3500401 	cmp	r0, #16777216	; 0x1000000
    1ff4:	3a000004 	bcc	200c <__addsf3+0xa8>
    1ff8:	e1b000a0 	lsrs	r0, r0, #1
    1ffc:	e1a01061 	rrx	r1, r1
    2000:	e2822001 	add	r2, r2, #1
    2004:	e35200fe 	cmp	r2, #254	; 0xfe
    2008:	2a000038 	bcs	20f0 <__addsf3+0x18c>
    200c:	e3510102 	cmp	r1, #-2147483648	; 0x80000000
    2010:	e0a00b82 	adc	r0, r0, r2, lsl #23
    2014:	03c00001 	biceq	r0, r0, #1
    2018:	e1800003 	orr	r0, r0, r3
    201c:	e12fff1e 	bx	lr
    2020:	e1b01081 	lsls	r1, r1, #1
    2024:	e0a00000 	adc	r0, r0, r0
    2028:	e3100502 	tst	r0, #8388608	; 0x800000
    202c:	e2422001 	sub	r2, r2, #1
    2030:	1afffff5 	bne	200c <__addsf3+0xa8>
    2034:	e1b0c620 	lsrs	r12, r0, #12
    2038:	01a00600 	lsleq	r0, r0, #12
    203c:	0242200c 	subeq	r2, r2, #12
    2040:	e31008ff 	tst	r0, #16711680	; 0xff0000
    2044:	01a00400 	lsleq	r0, r0, #8
    2048:	02422008 	subeq	r2, r2, #8
    204c:	e310060f 	tst	r0, #15728640	; 0xf00000
    2050:	01a00200 	lsleq	r0, r0, #4
    2054:	02422004 	subeq	r2, r2, #4
    2058:	e3100503 	tst	r0, #12582912	; 0xc00000
    205c:	01a00100 	lsleq	r0, r0, #2
    2060:	02422002 	subeq	r2, r2, #2
    2064:	e3500502 	cmp	r0, #8388608	; 0x800000
    2068:	31a00080 	lslcc	r0, r0, #1
    206c:	e2d22000 	sbcs	r2, r2, #0
    2070:	a0800b82 	addge	r0, r0, r2, lsl #23
    2074:	b2622000 	rsblt	r2, r2, #0
    2078:	a1800003 	orrge	r0, r0, r3
    207c:	b1830230 	orrlt	r0, r3, r0, lsr r2
    2080:	e12fff1e 	bx	lr
    2084:	e3320000 	teq	r2, #0
    2088:	e2211502 	eor	r1, r1, #8388608	; 0x800000
    208c:	02200502 	eoreq	r0, r0, #8388608	; 0x800000
    2090:	02822001 	addeq	r2, r2, #1
    2094:	12433001 	subne	r3, r3, #1
    2098:	eaffffca 	b	1fc8 <__addsf3+0x64>
    209c:	e1a03081 	lsl	r3, r1, #1
    20a0:	e1f0cc42 	mvns	r12, r2, asr #24
    20a4:	11f0cc43 	mvnsne	r12, r3, asr #24
    20a8:	0a000013 	beq	20fc <__addsf3+0x198>
    20ac:	e1320003 	teq	r2, r3
    20b0:	0a000002 	beq	20c0 <__addsf3+0x15c>
    20b4:	e3320000 	teq	r2, #0
    20b8:	01a00001 	moveq	r0, r1
    20bc:	e12fff1e 	bx	lr
    20c0:	e1300001 	teq	r0, r1
    20c4:	13a00000 	movne	r0, #0
    20c8:	112fff1e 	bxne	lr
    20cc:	e31204ff 	tst	r2, #-16777216	; 0xff000000
    20d0:	1a000002 	bne	20e0 <__addsf3+0x17c>
    20d4:	e1b00080 	lsls	r0, r0, #1
    20d8:	23800102 	orrcs	r0, r0, #-2147483648	; 0x80000000
    20dc:	e12fff1e 	bx	lr
    20e0:	e2922402 	adds	r2, r2, #33554432	; 0x2000000
    20e4:	32800502 	addcc	r0, r0, #8388608	; 0x800000
    20e8:	312fff1e 	bxcc	lr
    20ec:	e2003102 	and	r3, r0, #-2147483648	; 0x80000000
    20f0:	e383047f 	orr	r0, r3, #2130706432	; 0x7f000000
    20f4:	e3800502 	orr	r0, r0, #8388608	; 0x800000
    20f8:	e12fff1e 	bx	lr
    20fc:	e1f02c42 	mvns	r2, r2, asr #24
    2100:	11a00001 	movne	r0, r1
    2104:	01f03c43 	mvnseq	r3, r3, asr #24
    2108:	11a01000 	movne	r1, r0
    210c:	e1b02480 	lsls	r2, r0, #9
    2110:	01b03481 	lslseq	r3, r1, #9
    2114:	01300001 	teqeq	r0, r1
    2118:	13800501 	orrne	r0, r0, #4194304	; 0x400000
    211c:	e12fff1e 	bx	lr

00002120 <__aeabi_ui2f>:
    2120:	e3a03000 	mov	r3, #0
    2124:	ea000001 	b	2130 <__aeabi_i2f+0x8>

00002128 <__aeabi_i2f>:
    2128:	e2103102 	ands	r3, r0, #-2147483648	; 0x80000000
    212c:	42600000 	rsbmi	r0, r0, #0
    2130:	e1b0c000 	movs	r12, r0
    2134:	012fff1e 	bxeq	lr
    2138:	e383344b 	orr	r3, r3, #1258291200	; 0x4b000000
    213c:	e1a01000 	mov	r1, r0
    2140:	e3a00000 	mov	r0, #0
    2144:	ea00000f 	b	2188 <__aeabi_l2f+0x30>

00002148 <__aeabi_ul2f>:
    2148:	e1902001 	orrs	r2, r0, r1
    214c:	012fff1e 	bxeq	lr
    2150:	e3a03000 	mov	r3, #0
    2154:	ea000005 	b	2170 <__aeabi_l2f+0x18>

00002158 <__aeabi_l2f>:
    2158:	e1902001 	orrs	r2, r0, r1
    215c:	012fff1e 	bxeq	lr
    2160:	e2113102 	ands	r3, r1, #-2147483648	; 0x80000000
    2164:	5a000001 	bpl	2170 <__aeabi_l2f+0x18>
    2168:	e2700000 	rsbs	r0, r0, #0
    216c:	e2e11000 	rsc	r1, r1, #0
    2170:	e1b0c001 	movs	r12, r1
    2174:	01a0c000 	moveq	r12, r0
    2178:	01a01000 	moveq	r1, r0
    217c:	03a00000 	moveq	r0, #0
    2180:	e383345b 	orr	r3, r3, #1526726656	; 0x5b000000
    2184:	02433201 	subeq	r3, r3, #268435456	; 0x10000000
    2188:	e2433502 	sub	r3, r3, #8388608	; 0x800000
    218c:	e3a02017 	mov	r2, #23
    2190:	e35c0801 	cmp	r12, #65536	; 0x10000
    2194:	21a0c82c 	lsrcs	r12, r12, #16
    2198:	22422010 	subcs	r2, r2, #16
    219c:	e35c0c01 	cmp	r12, #256	; 0x100
    21a0:	21a0c42c 	lsrcs	r12, r12, #8
    21a4:	22422008 	subcs	r2, r2, #8
    21a8:	e35c0010 	cmp	r12, #16
    21ac:	21a0c22c 	lsrcs	r12, r12, #4
    21b0:	22422004 	subcs	r2, r2, #4
    21b4:	e35c0004 	cmp	r12, #4
    21b8:	22422002 	subcs	r2, r2, #2
    21bc:	304220ac 	subcc	r2, r2, r12, lsr #1
    21c0:	e05221ac 	subs	r2, r2, r12, lsr #3
    21c4:	e0433b82 	sub	r3, r3, r2, lsl #23
    21c8:	ba000006 	blt	21e8 <__aeabi_l2f+0x90>
    21cc:	e0833211 	add	r3, r3, r1, lsl r2
    21d0:	e1a0c210 	lsl	r12, r0, r2
    21d4:	e2622020 	rsb	r2, r2, #32
    21d8:	e35c0102 	cmp	r12, #-2147483648	; 0x80000000
    21dc:	e0a30230 	adc	r0, r3, r0, lsr r2
    21e0:	03c00001 	biceq	r0, r0, #1
    21e4:	e12fff1e 	bx	lr
    21e8:	e2822020 	add	r2, r2, #32
    21ec:	e1a0c211 	lsl	r12, r1, r2
    21f0:	e2622020 	rsb	r2, r2, #32
    21f4:	e190008c 	orrs	r0, r0, r12, lsl #1
    21f8:	e0a30231 	adc	r0, r3, r1, lsr r2
    21fc:	01c00fac 	biceq	r0, r0, r12, lsr #31
    2200:	e12fff1e 	bx	lr

00002204 <__aeabi_fmul>:
    2204:	e3a0c0ff 	mov	r12, #255	; 0xff
    2208:	e01c2ba0 	ands	r2, r12, r0, lsr #23
    220c:	101c3ba1 	andsne	r3, r12, r1, lsr #23
    2210:	1132000c 	teqne	r2, r12
    2214:	1133000c 	teqne	r3, r12
    2218:	0a00003e 	beq	2318 <__aeabi_fmul+0x114>
    221c:	e0822003 	add	r2, r2, r3
    2220:	e020c001 	eor	r12, r0, r1
    2224:	e1b00480 	lsls	r0, r0, #9
    2228:	11b01481 	lslsne	r1, r1, #9
    222c:	0a000010 	beq	2274 <__aeabi_fmul+0x70>
    2230:	e3a03302 	mov	r3, #134217728	; 0x8000000
    2234:	e18302a0 	orr	r0, r3, r0, lsr #5
    2238:	e18312a1 	orr	r1, r3, r1, lsr #5
    223c:	e0813190 	umull	r3, r1, r0, r1
    2240:	e20c0102 	and	r0, r12, #-2147483648	; 0x80000000
    2244:	e3510502 	cmp	r1, #8388608	; 0x800000
    2248:	31a01081 	lslcc	r1, r1, #1
    224c:	31811fa3 	orrcc	r1, r1, r3, lsr #31
    2250:	31a03083 	lslcc	r3, r3, #1
    2254:	e1800001 	orr	r0, r0, r1
    2258:	e2c2207f 	sbc	r2, r2, #127	; 0x7f
    225c:	e35200fd 	cmp	r2, #253	; 0xfd
    2260:	8a00000f 	bhi	22a4 <__aeabi_fmul+0xa0>
    2264:	e3530102 	cmp	r3, #-2147483648	; 0x80000000
    2268:	e0a00b82 	adc	r0, r0, r2, lsl #23
    226c:	03c00001 	biceq	r0, r0, #1
    2270:	e12fff1e 	bx	lr
    2274:	e3300000 	teq	r0, #0
    2278:	e20cc102 	and	r12, r12, #-2147483648	; 0x80000000
    227c:	01a01481 	lsleq	r1, r1, #9
    2280:	e18c04a0 	orr	r0, r12, r0, lsr #9
    2284:	e18004a1 	orr	r0, r0, r1, lsr #9
    2288:	e252207f 	subs	r2, r2, #127	; 0x7f
    228c:	c27230ff 	rsbsgt	r3, r2, #255	; 0xff
    2290:	c1800b82 	orrgt	r0, r0, r2, lsl #23
    2294:	c12fff1e 	bxgt	lr
    2298:	e3800502 	orr	r0, r0, #8388608	; 0x800000
    229c:	e3a03000 	mov	r3, #0
    22a0:	e2522001 	subs	r2, r2, #1
    22a4:	ca000035 	bgt	2380 <__aeabi_fmul+0x17c>
    22a8:	e3720019 	cmn	r2, #25
    22ac:	d2000102 	andle	r0, r0, #-2147483648	; 0x80000000
    22b0:	d12fff1e 	bxle	lr
    22b4:	e2622000 	rsb	r2, r2, #0
    22b8:	e1b01080 	lsls	r1, r0, #1
    22bc:	e1a01231 	lsr	r1, r1, r2
    22c0:	e2622020 	rsb	r2, r2, #32
    22c4:	e1a0c210 	lsl	r12, r0, r2
    22c8:	e1b00061 	rrxs	r0, r1
    22cc:	e2a00000 	adc	r0, r0, #0
    22d0:	e193308c 	orrs	r3, r3, r12, lsl #1
    22d4:	01c00fac 	biceq	r0, r0, r12, lsr #31
    22d8:	e12fff1e 	bx	lr
    22dc:	e3320000 	teq	r2, #0
    22e0:	e200c102 	and	r12, r0, #-2147483648	; 0x80000000
    22e4:	01a00080 	lsleq	r0, r0, #1
    22e8:	03100502 	tsteq	r0, #8388608	; 0x800000
    22ec:	02422001 	subeq	r2, r2, #1
    22f0:	0afffffb 	beq	22e4 <__aeabi_fmul+0xe0>
    22f4:	e180000c 	orr	r0, r0, r12
    22f8:	e3330000 	teq	r3, #0
    22fc:	e201c102 	and	r12, r1, #-2147483648	; 0x80000000
    2300:	01a01081 	lsleq	r1, r1, #1
    2304:	03110502 	tsteq	r1, #8388608	; 0x800000
    2308:	02433001 	subeq	r3, r3, #1
    230c:	0afffffb 	beq	2300 <__aeabi_fmul+0xfc>
    2310:	e181100c 	orr	r1, r1, r12
    2314:	eaffffc0 	b	221c <__aeabi_fmul+0x18>
    2318:	e00c3ba1 	and	r3, r12, r1, lsr #23
    231c:	e132000c 	teq	r2, r12
    2320:	1133000c 	teqne	r3, r12
    2324:	0a000005 	beq	2340 <__aeabi_fmul+0x13c>
    2328:	e3d0c102 	bics	r12, r0, #-2147483648	; 0x80000000
    232c:	13d1c102 	bicsne	r12, r1, #-2147483648	; 0x80000000
    2330:	1affffe9 	bne	22dc <__aeabi_fmul+0xd8>
    2334:	e0200001 	eor	r0, r0, r1
    2338:	e2000102 	and	r0, r0, #-2147483648	; 0x80000000
    233c:	e12fff1e 	bx	lr
    2340:	e3300000 	teq	r0, #0
    2344:	13300102 	teqne	r0, #-2147483648	; 0x80000000
    2348:	01a00001 	moveq	r0, r1
    234c:	13310000 	teqne	r1, #0
    2350:	13310102 	teqne	r1, #-2147483648	; 0x80000000
    2354:	0a00000d 	beq	2390 <__aeabi_fmul+0x18c>
    2358:	e132000c 	teq	r2, r12
    235c:	1a000001 	bne	2368 <__aeabi_fmul+0x164>
    2360:	e1b02480 	lsls	r2, r0, #9
    2364:	1a000009 	bne	2390 <__aeabi_fmul+0x18c>
    2368:	e133000c 	teq	r3, r12
    236c:	1a000002 	bne	237c <__aeabi_fmul+0x178>
    2370:	e1b03481 	lsls	r3, r1, #9
    2374:	11a00001 	movne	r0, r1
    2378:	1a000004 	bne	2390 <__aeabi_fmul+0x18c>
    237c:	e0200001 	eor	r0, r0, r1
    2380:	e2000102 	and	r0, r0, #-2147483648	; 0x80000000
    2384:	e380047f 	orr	r0, r0, #2130706432	; 0x7f000000
    2388:	e3800502 	orr	r0, r0, #8388608	; 0x800000
    238c:	e12fff1e 	bx	lr
    2390:	e380047f 	orr	r0, r0, #2130706432	; 0x7f000000
    2394:	e3800503 	orr	r0, r0, #12582912	; 0xc00000
    2398:	e12fff1e 	bx	lr

0000239c <__aeabi_fdiv>:
    239c:	e3a0c0ff 	mov	r12, #255	; 0xff
    23a0:	e01c2ba0 	ands	r2, r12, r0, lsr #23
    23a4:	101c3ba1 	andsne	r3, r12, r1, lsr #23
    23a8:	1132000c 	teqne	r2, r12
    23ac:	1133000c 	teqne	r3, r12
    23b0:	0a00003a 	beq	24a0 <__aeabi_fdiv+0x104>
    23b4:	e0422003 	sub	r2, r2, r3
    23b8:	e020c001 	eor	r12, r0, r1
    23bc:	e1b01481 	lsls	r1, r1, #9
    23c0:	e1a00480 	lsl	r0, r0, #9
    23c4:	0a00001c 	beq	243c <__aeabi_fdiv+0xa0>
    23c8:	e3a03201 	mov	r3, #268435456	; 0x10000000
    23cc:	e1831221 	orr	r1, r3, r1, lsr #4
    23d0:	e1833220 	orr	r3, r3, r0, lsr #4
    23d4:	e20c0102 	and	r0, r12, #-2147483648	; 0x80000000
    23d8:	e1530001 	cmp	r3, r1
    23dc:	31a03083 	lslcc	r3, r3, #1
    23e0:	e2a2207d 	adc	r2, r2, #125	; 0x7d
    23e4:	e3a0c502 	mov	r12, #8388608	; 0x800000
    23e8:	e1530001 	cmp	r3, r1
    23ec:	20433001 	subcs	r3, r3, r1
    23f0:	2180000c 	orrcs	r0, r0, r12
    23f4:	e15300a1 	cmp	r3, r1, lsr #1
    23f8:	204330a1 	subcs	r3, r3, r1, lsr #1
    23fc:	218000ac 	orrcs	r0, r0, r12, lsr #1
    2400:	e1530121 	cmp	r3, r1, lsr #2
    2404:	20433121 	subcs	r3, r3, r1, lsr #2
    2408:	2180012c 	orrcs	r0, r0, r12, lsr #2
    240c:	e15301a1 	cmp	r3, r1, lsr #3
    2410:	204331a1 	subcs	r3, r3, r1, lsr #3
    2414:	218001ac 	orrcs	r0, r0, r12, lsr #3
    2418:	e1b03203 	lsls	r3, r3, #4
    241c:	11b0c22c 	lsrsne	r12, r12, #4
    2420:	1afffff0 	bne	23e8 <__aeabi_fdiv+0x4c>
    2424:	e35200fd 	cmp	r2, #253	; 0xfd
    2428:	8affff9d 	bhi	22a4 <__aeabi_fmul+0xa0>
    242c:	e1530001 	cmp	r3, r1
    2430:	e0a00b82 	adc	r0, r0, r2, lsl #23
    2434:	03c00001 	biceq	r0, r0, #1
    2438:	e12fff1e 	bx	lr
    243c:	e20cc102 	and	r12, r12, #-2147483648	; 0x80000000
    2440:	e18c04a0 	orr	r0, r12, r0, lsr #9
    2444:	e292207f 	adds	r2, r2, #127	; 0x7f
    2448:	c27230ff 	rsbsgt	r3, r2, #255	; 0xff
    244c:	c1800b82 	orrgt	r0, r0, r2, lsl #23
    2450:	c12fff1e 	bxgt	lr
    2454:	e3800502 	orr	r0, r0, #8388608	; 0x800000
    2458:	e3a03000 	mov	r3, #0
    245c:	e2522001 	subs	r2, r2, #1
    2460:	eaffff8f 	b	22a4 <__aeabi_fmul+0xa0>
    2464:	e3320000 	teq	r2, #0
    2468:	e200c102 	and	r12, r0, #-2147483648	; 0x80000000
    246c:	01a00080 	lsleq	r0, r0, #1
    2470:	03100502 	tsteq	r0, #8388608	; 0x800000
    2474:	02422001 	subeq	r2, r2, #1
    2478:	0afffffb 	beq	246c <__aeabi_fdiv+0xd0>
    247c:	e180000c 	orr	r0, r0, r12
    2480:	e3330000 	teq	r3, #0
    2484:	e201c102 	and	r12, r1, #-2147483648	; 0x80000000
    2488:	01a01081 	lsleq	r1, r1, #1
    248c:	03110502 	tsteq	r1, #8388608	; 0x800000
    2490:	02433001 	subeq	r3, r3, #1
    2494:	0afffffb 	beq	2488 <__aeabi_fdiv+0xec>
    2498:	e181100c 	orr	r1, r1, r12
    249c:	eaffffc4 	b	23b4 <__aeabi_fdiv+0x18>
    24a0:	e00c3ba1 	and	r3, r12, r1, lsr #23
    24a4:	e132000c 	teq	r2, r12
    24a8:	1a000005 	bne	24c4 <__aeabi_fdiv+0x128>
    24ac:	e1b02480 	lsls	r2, r0, #9
    24b0:	1affffb6 	bne	2390 <__aeabi_fmul+0x18c>
    24b4:	e133000c 	teq	r3, r12
    24b8:	1affffaf 	bne	237c <__aeabi_fmul+0x178>
    24bc:	e1a00001 	mov	r0, r1
    24c0:	eaffffb2 	b	2390 <__aeabi_fmul+0x18c>
    24c4:	e133000c 	teq	r3, r12
    24c8:	1a000003 	bne	24dc <__aeabi_fdiv+0x140>
    24cc:	e1b03481 	lsls	r3, r1, #9
    24d0:	0affff97 	beq	2334 <__aeabi_fmul+0x130>
    24d4:	e1a00001 	mov	r0, r1
    24d8:	eaffffac 	b	2390 <__aeabi_fmul+0x18c>
    24dc:	e3d0c102 	bics	r12, r0, #-2147483648	; 0x80000000
    24e0:	13d1c102 	bicsne	r12, r1, #-2147483648	; 0x80000000
    24e4:	1affffde 	bne	2464 <__aeabi_fdiv+0xc8>
    24e8:	e3d02102 	bics	r2, r0, #-2147483648	; 0x80000000
    24ec:	1affffa2 	bne	237c <__aeabi_fmul+0x178>
    24f0:	e3d13102 	bics	r3, r1, #-2147483648	; 0x80000000
    24f4:	1affff8e 	bne	2334 <__aeabi_fmul+0x130>
    24f8:	eaffffa4 	b	2390 <__aeabi_fmul+0x18c>

000024fc <__aeabi_f2iz>:
    24fc:	e1a02080 	lsl	r2, r0, #1
    2500:	e352047f 	cmp	r2, #2130706432	; 0x7f000000
    2504:	3a000008 	bcc	252c <__aeabi_f2iz+0x30>
    2508:	e3a0309e 	mov	r3, #158	; 0x9e
    250c:	e0532c22 	subs	r2, r3, r2, lsr #24
    2510:	9a000007 	bls	2534 <__aeabi_f2iz+0x38>
    2514:	e1a03400 	lsl	r3, r0, #8
    2518:	e3833102 	orr	r3, r3, #-2147483648	; 0x80000000
    251c:	e3100102 	tst	r0, #-2147483648	; 0x80000000
    2520:	e1a00233 	lsr	r0, r3, r2
    2524:	12600000 	rsbne	r0, r0, #0
    2528:	e12fff1e 	bx	lr
    252c:	e3a00000 	mov	r0, #0
    2530:	e12fff1e 	bx	lr
    2534:	e3720061 	cmn	r2, #97	; 0x61
    2538:	1a000001 	bne	2544 <__aeabi_f2iz+0x48>
    253c:	e1b02480 	lsls	r2, r0, #9
    2540:	1a000002 	bne	2550 <__aeabi_f2iz+0x54>
    2544:	e2100102 	ands	r0, r0, #-2147483648	; 0x80000000
    2548:	03e00102 	mvneq	r0, #-2147483648	; 0x80000000
    254c:	e12fff1e 	bx	lr
    2550:	e3a00000 	mov	r0, #0
    2554:	e12fff1e 	bx	lr

00002558 <atexit>:
    2558:	e1a01000 	mov	r1, r0
    255c:	e3a00000 	mov	r0, #0
    2560:	e92d4008 	push	{r3, lr}
    2564:	e1a02000 	mov	r2, r0
    2568:	e1a03000 	mov	r3, r0
    256c:	eb00000e 	bl	25ac <__register_exitproc>
    2570:	e8bd4008 	pop	{r3, lr}
    2574:	e12fff1e 	bx	lr

00002578 <exit>:
    2578:	e92d4008 	push	{r3, lr}
    257c:	e3a01000 	mov	r1, #0
    2580:	e1a04000 	mov	r4, r0
    2584:	eb000045 	bl	26a0 <__call_exitprocs>
    2588:	e59f3018 	ldr	r3, [pc, #24]	; 25a8 <exit+0x30>
    258c:	e5930000 	ldr	r0, [r3]
    2590:	e590303c 	ldr	r3, [r0, #60]	; 0x3c
    2594:	e3530000 	cmp	r3, #0
    2598:	11a0e00f 	movne	lr, pc
    259c:	112fff13 	bxne	r3
    25a0:	e1a00004 	mov	r0, r4
    25a4:	eb0000c9 	bl	28d0 <_exit>
    25a8:	000029f8 	.word	0x000029f8

000025ac <__register_exitproc>:
    25ac:	e59fc0e4 	ldr	r12, [pc, #228]	; 2698 <__register_exitproc+0xec>
    25b0:	e92d41f0 	push	{r4, r5, r6, r7, r8, lr}
    25b4:	e59c4000 	ldr	r4, [r12]
    25b8:	e594c148 	ldr	r12, [r4, #328]	; 0x148
    25bc:	e35c0000 	cmp	r12, #0
    25c0:	0284cf53 	addeq	r12, r4, #332	; 0x14c
    25c4:	e59c5004 	ldr	r5, [r12, #4]
    25c8:	0584c148 	streq	r12, [r4, #328]	; 0x148
    25cc:	e355001f 	cmp	r5, #31
    25d0:	e24dd010 	sub	sp, sp, #16
    25d4:	e1a06000 	mov	r6, r0
    25d8:	da000015 	ble	2634 <__register_exitproc+0x88>
    25dc:	e59f00b8 	ldr	r0, [pc, #184]	; 269c <__register_exitproc+0xf0>
    25e0:	e3500000 	cmp	r0, #0
    25e4:	1a000001 	bne	25f0 <__register_exitproc+0x44>
    25e8:	e3e00000 	mvn	r0, #0
    25ec:	ea000018 	b	2654 <__register_exitproc+0xa8>
    25f0:	e3a00e19 	mov	r0, #400	; 0x190
    25f4:	e58d100c 	str	r1, [sp, #12]
    25f8:	e58d2008 	str	r2, [sp, #8]
    25fc:	e58d3004 	str	r3, [sp, #4]
    2600:	e320f000 	nop	{0}
    2604:	e250c000 	subs	r12, r0, #0
    2608:	e59d100c 	ldr	r1, [sp, #12]
    260c:	e59d2008 	ldr	r2, [sp, #8]
    2610:	e59d3004 	ldr	r3, [sp, #4]
    2614:	0afffff3 	beq	25e8 <__register_exitproc+0x3c>
    2618:	e5945148 	ldr	r5, [r4, #328]	; 0x148
    261c:	e3a00000 	mov	r0, #0
    2620:	e58c0004 	str	r0, [r12, #4]
    2624:	e58c5000 	str	r5, [r12]
    2628:	e584c148 	str	r12, [r4, #328]	; 0x148
    262c:	e58c0188 	str	r0, [r12, #392]	; 0x188
    2630:	e58c018c 	str	r0, [r12, #396]	; 0x18c
    2634:	e3560000 	cmp	r6, #0
    2638:	e59c4004 	ldr	r4, [r12, #4]
    263c:	1a000007 	bne	2660 <__register_exitproc+0xb4>
    2640:	e2843002 	add	r3, r4, #2
    2644:	e2844001 	add	r4, r4, #1
    2648:	e78c1103 	str	r1, [r12, r3, lsl #2]
    264c:	e58c4004 	str	r4, [r12, #4]
    2650:	e3a00000 	mov	r0, #0
    2654:	e28dd010 	add	sp, sp, #16
    2658:	e8bd41f0 	pop	{r4, r5, r6, r7, r8, lr}
    265c:	e12fff1e 	bx	lr
    2660:	e3a00001 	mov	r0, #1
    2664:	e1a00410 	lsl	r0, r0, r4
    2668:	e08c8104 	add	r8, r12, r4, lsl #2
    266c:	e3560002 	cmp	r6, #2
    2670:	e59c7188 	ldr	r7, [r12, #392]	; 0x188
    2674:	e5883108 	str	r3, [r8, #264]	; 0x108
    2678:	059c318c 	ldreq	r3, [r12, #396]	; 0x18c
    267c:	e1877000 	orr	r7, r7, r0
    2680:	01830000 	orreq	r0, r3, r0
    2684:	e1a05008 	mov	r5, r8
    2688:	e5882088 	str	r2, [r8, #136]	; 0x88
    268c:	e58c7188 	str	r7, [r12, #392]	; 0x188
    2690:	058c018c 	streq	r0, [r12, #396]	; 0x18c
    2694:	eaffffe9 	b	2640 <__register_exitproc+0x94>
    2698:	000029f8 	.word	0x000029f8
    269c:	00000000 	.word	0x00000000

000026a0 <__call_exitprocs>:
    26a0:	e92d4ff0 	push	{r4, r5, r6, r7, r8, r9, r10, r11, lr}
    26a4:	e59f3168 	ldr	r3, [pc, #360]	; 2814 <__call_exitprocs+0x174>
    26a8:	e5933000 	ldr	r3, [r3]
    26ac:	e24dd014 	sub	sp, sp, #20
    26b0:	e58d3004 	str	r3, [sp, #4]
    26b4:	e2833f52 	add	r3, r3, #328	; 0x148
    26b8:	e58d0008 	str	r0, [sp, #8]
    26bc:	e58d300c 	str	r3, [sp, #12]
    26c0:	e1a07001 	mov	r7, r1
    26c4:	e3a08001 	mov	r8, #1
    26c8:	e59d3004 	ldr	r3, [sp, #4]
    26cc:	e5936148 	ldr	r6, [r3, #328]	; 0x148
    26d0:	e3560000 	cmp	r6, #0
    26d4:	e59db00c 	ldr	r11, [sp, #12]
    26d8:	0a000033 	beq	27ac <__call_exitprocs+0x10c>
    26dc:	e5965004 	ldr	r5, [r6, #4]
    26e0:	e2554001 	subs	r4, r5, #1
    26e4:	5286a088 	addpl	r10, r6, #136	; 0x88
    26e8:	5285501f 	addpl	r5, r5, #31
    26ec:	508a5105 	addpl	r5, r10, r5, lsl #2
    26f0:	5a000007 	bpl	2714 <__call_exitprocs+0x74>
    26f4:	ea000029 	b	27a0 <__call_exitprocs+0x100>
    26f8:	e5953000 	ldr	r3, [r5]
    26fc:	e1530007 	cmp	r3, r7
    2700:	0a000005 	beq	271c <__call_exitprocs+0x7c>
    2704:	e2444001 	sub	r4, r4, #1
    2708:	e3740001 	cmn	r4, #1
    270c:	e2455004 	sub	r5, r5, #4
    2710:	0a000022 	beq	27a0 <__call_exitprocs+0x100>
    2714:	e3570000 	cmp	r7, #0
    2718:	1afffff6 	bne	26f8 <__call_exitprocs+0x58>
    271c:	e5963004 	ldr	r3, [r6, #4]
    2720:	e06a2005 	rsb	r2, r10, r5
    2724:	e2433001 	sub	r3, r3, #1
    2728:	e0862002 	add	r2, r6, r2
    272c:	e1530004 	cmp	r3, r4
    2730:	e5123078 	ldr	r3, [r2, #-120]	; 0xffffff88
    2734:	13a01000 	movne	r1, #0
    2738:	05864004 	streq	r4, [r6, #4]
    273c:	15021078 	strne	r1, [r2, #-120]	; 0xffffff88
    2740:	e3530000 	cmp	r3, #0
    2744:	0affffee 	beq	2704 <__call_exitprocs+0x64>
    2748:	e1a02418 	lsl	r2, r8, r4
    274c:	e5961188 	ldr	r1, [r6, #392]	; 0x188
    2750:	e1120001 	tst	r2, r1
    2754:	e5969004 	ldr	r9, [r6, #4]
    2758:	0a000016 	beq	27b8 <__call_exitprocs+0x118>
    275c:	e596118c 	ldr	r1, [r6, #396]	; 0x18c
    2760:	e1120001 	tst	r2, r1
    2764:	1a000016 	bne	27c4 <__call_exitprocs+0x124>
    2768:	e59d0008 	ldr	r0, [sp, #8]
    276c:	e5151080 	ldr	r1, [r5, #-128]	; 0xffffff80
    2770:	e1a0e00f 	mov	lr, pc
    2774:	e12fff13 	bx	r3
    2778:	e5963004 	ldr	r3, [r6, #4]
    277c:	e1530009 	cmp	r3, r9
    2780:	1affffd0 	bne	26c8 <__call_exitprocs+0x28>
    2784:	e59b3000 	ldr	r3, [r11]
    2788:	e1530006 	cmp	r3, r6
    278c:	1affffcd 	bne	26c8 <__call_exitprocs+0x28>
    2790:	e2444001 	sub	r4, r4, #1
    2794:	e3740001 	cmn	r4, #1
    2798:	e2455004 	sub	r5, r5, #4
    279c:	1affffdc 	bne	2714 <__call_exitprocs+0x74>
    27a0:	e59f1070 	ldr	r1, [pc, #112]	; 2818 <__call_exitprocs+0x178>
    27a4:	e3510000 	cmp	r1, #0
    27a8:	1a000009 	bne	27d4 <__call_exitprocs+0x134>
    27ac:	e28dd014 	add	sp, sp, #20
    27b0:	e8bd4ff0 	pop	{r4, r5, r6, r7, r8, r9, r10, r11, lr}
    27b4:	e12fff1e 	bx	lr
    27b8:	e1a0e00f 	mov	lr, pc
    27bc:	e12fff13 	bx	r3
    27c0:	eaffffec 	b	2778 <__call_exitprocs+0xd8>
    27c4:	e5150080 	ldr	r0, [r5, #-128]	; 0xffffff80
    27c8:	e1a0e00f 	mov	lr, pc
    27cc:	e12fff13 	bx	r3
    27d0:	eaffffe8 	b	2778 <__call_exitprocs+0xd8>
    27d4:	e5963004 	ldr	r3, [r6, #4]
    27d8:	e3530000 	cmp	r3, #0
    27dc:	e5963000 	ldr	r3, [r6]
    27e0:	1a000008 	bne	2808 <__call_exitprocs+0x168>
    27e4:	e3530000 	cmp	r3, #0
    27e8:	0a000006 	beq	2808 <__call_exitprocs+0x168>
    27ec:	e1a00006 	mov	r0, r6
    27f0:	e58b3000 	str	r3, [r11]
    27f4:	e320f000 	nop	{0}
    27f8:	e59b6000 	ldr	r6, [r11]
    27fc:	e3560000 	cmp	r6, #0
    2800:	1affffb5 	bne	26dc <__call_exitprocs+0x3c>
    2804:	eaffffe8 	b	27ac <__call_exitprocs+0x10c>
    2808:	e1a0b006 	mov	r11, r6
    280c:	e1a06003 	mov	r6, r3
    2810:	eafffff9 	b	27fc <__call_exitprocs+0x15c>
    2814:	000029f8 	.word	0x000029f8
    2818:	00000000 	.word	0x00000000

0000281c <register_fini>:
    281c:	e92d4008 	push	{r3, lr}
    2820:	e59f3010 	ldr	r3, [pc, #16]	; 2838 <register_fini+0x1c>
    2824:	e3530000 	cmp	r3, #0
    2828:	159f000c 	ldrne	r0, [pc, #12]	; 283c <register_fini+0x20>
    282c:	1bffff49 	blne	2558 <atexit>
    2830:	e8bd4008 	pop	{r3, lr}
    2834:	e12fff1e 	bx	lr
    2838:	00002a20 	.word	0x00002a20
    283c:	00002840 	.word	0x00002840

00002840 <__libc_fini_array>:
    2840:	e92d4038 	push	{r3, r4, r5, lr}
    2844:	e59f5030 	ldr	r5, [pc, #48]	; 287c <__libc_fini_array+0x3c>
    2848:	e59f4030 	ldr	r4, [pc, #48]	; 2880 <__libc_fini_array+0x40>
    284c:	e0654004 	rsb	r4, r5, r4
    2850:	e1b04144 	asrs	r4, r4, #2
    2854:	10855104 	addne	r5, r5, r4, lsl #2
    2858:	0a000004 	beq	2870 <__libc_fini_array+0x30>
    285c:	e5353004 	ldr	r3, [r5, #-4]!
    2860:	e1a0e00f 	mov	lr, pc
    2864:	e12fff13 	bx	r3
    2868:	e2544001 	subs	r4, r4, #1
    286c:	1afffffa 	bne	285c <__libc_fini_array+0x1c>
    2870:	eb00006a 	bl	2a20 <__libc_fini>
    2874:	e8bd4038 	pop	{r3, r4, r5, lr}
    2878:	e12fff1e 	bx	lr
    287c:	00002a38 	.word	0x00002a38
    2880:	00002a3c 	.word	0x00002a3c

00002884 <__cs3_premain>:
    2884:	e92d4008 	push	{r3, lr}
    2888:	eb000017 	bl	28ec <__libc_init_array>
    288c:	e59f3030 	ldr	r3, [pc, #48]	; 28c4 <__cs3_premain+0x40>
    2890:	e3530000 	cmp	r3, #0
    2894:	15930000 	ldrne	r0, [r3]
    2898:	01a00003 	moveq	r0, r3
    289c:	e59f3024 	ldr	r3, [pc, #36]	; 28c8 <__cs3_premain+0x44>
    28a0:	e3530000 	cmp	r3, #0
    28a4:	15931000 	ldrne	r1, [r3]
    28a8:	01a01003 	moveq	r1, r3
    28ac:	e3a02000 	mov	r2, #0
    28b0:	ebfff9f5 	bl	108c <main>
    28b4:	e59f3010 	ldr	r3, [pc, #16]	; 28cc <__cs3_premain+0x48>
    28b8:	e3530000 	cmp	r3, #0
    28bc:	1bffff2d 	blne	2578 <exit>
    28c0:	eafffffe 	b	28c0 <__cs3_premain+0x3c>
	...
    28cc:	00002578 	.word	0x00002578

000028d0 <_exit>:
    28d0:	e52de004 	push	{lr}		; (str lr, [sp, #-4]!)
    28d4:	e3a00018 	mov	r0, #24
    28d8:	e59f1004 	ldr	r1, [pc, #4]	; 28e4 <_exit+0x14>
    28dc:	ef123456 	svc	0x00123456
    28e0:	eafffffe 	b	28e0 <_exit+0x10>
    28e4:	00020026 	.word	0x00020026

000028e8 <__cs3_isr_interrupt>:
    28e8:	eafffffe 	b	28e8 <__cs3_isr_interrupt>

000028ec <__libc_init_array>:
    28ec:	e92d4070 	push	{r4, r5, r6, lr}
    28f0:	e59f506c 	ldr	r5, [pc, #108]	; 2964 <__libc_init_array+0x78>
    28f4:	e59f606c 	ldr	r6, [pc, #108]	; 2968 <__libc_init_array+0x7c>
    28f8:	e0656006 	rsb	r6, r5, r6
    28fc:	e1b06146 	asrs	r6, r6, #2
    2900:	12455004 	subne	r5, r5, #4
    2904:	13a04000 	movne	r4, #0
    2908:	0a000005 	beq	2924 <__libc_init_array+0x38>
    290c:	e5b53004 	ldr	r3, [r5, #4]!
    2910:	e2844001 	add	r4, r4, #1
    2914:	e1a0e00f 	mov	lr, pc
    2918:	e12fff13 	bx	r3
    291c:	e1560004 	cmp	r6, r4
    2920:	1afffff9 	bne	290c <__libc_init_array+0x20>
    2924:	e59f5040 	ldr	r5, [pc, #64]	; 296c <__libc_init_array+0x80>
    2928:	e59f6040 	ldr	r6, [pc, #64]	; 2970 <__libc_init_array+0x84>
    292c:	e0656006 	rsb	r6, r5, r6
    2930:	eb000032 	bl	2a00 <_init>
    2934:	e1b06146 	asrs	r6, r6, #2
    2938:	12455004 	subne	r5, r5, #4
    293c:	13a04000 	movne	r4, #0
    2940:	0a000005 	beq	295c <__libc_init_array+0x70>
    2944:	e5b53004 	ldr	r3, [r5, #4]!
    2948:	e2844001 	add	r4, r4, #1
    294c:	e1a0e00f 	mov	lr, pc
    2950:	e12fff13 	bx	r3
    2954:	e1560004 	cmp	r6, r4
    2958:	1afffff9 	bne	2944 <__libc_init_array+0x58>
    295c:	e8bd4070 	pop	{r4, r5, r6, lr}
    2960:	e12fff1e 	bx	lr
    2964:	00002a18 	.word	0x00002a18
    2968:	00002a18 	.word	0x00002a18
    296c:	00002a18 	.word	0x00002a18
    2970:	00002a20 	.word	0x00002a20
